ASxxxx Linker V03.00 + NoICE + sdld,  page 1.
Hexadecimal  [32-Bits]

Area                                    Addr        Size        Decimal Bytes (Attributes)
--------------------------------        ----        ----        ------- ----- ------------
.  .ABS.                            00000000    00000000 =           0. bytes (ABS,CON)

      Value  Global                              Global Defined In Module
      -----  --------------------------------   ------------------------
     00000000  .__.ABS.                           
     00000000  _rRAMG                             
     00000000  l__BASE                         
     00000000  l__BSS                          
     00000000  l__CABS                         
     00000000  l__CODE_0                       
     00000000  l__CRASH_HEADER                 
     00000000  l__CRASH_SCRATCH                
     00000000  l__DABS                         
     00000000  l__EHL_TRAMPOLINE               
     00000000  l__HEADER                       
     00000000  l__HEADER_LCD                   
     00000000  l__HEADER_SIO                   
     00000000  l__HEADER_TIMER                 
     00000000  l__HEAP                         
     00000000  l__HRAM                         
     00000000  l__LIT                          
     00000000  s__CABS                         
     00000000  s__CRASH_HEADER                 
     00000000  s__CRASH_HEADER0                
     00000000  s__CRASH_HEADER1                
     00000000  s__CRASH_SCRATCH                
     00000000  s__CRASH_SCRATCH2               
     00000000  s__DABS                         
     00000000  s__EHL_TRAMPOLINE               
     00000000  s__EHL_TRAMPOLINE0              
     00000000  s__HEADER                       
     00000000  s__HEADER0                      
     00000000  s__HEADER1                      
     00000000  s__HEADER10                     
     00000000  s__HEADER11                     
     00000000  s__HEADER2                      
     00000000  s__HEADER3                      
     00000000  s__HEADER4                      
     00000000  s__HEADER5                      
     00000000  s__HEADER6                      
     00000000  s__HEADER7                      
     00000000  s__HEADER8                      
     00000000  s__HEADER9                      
     00000000  s__HEADER_LCD                   
     00000000  s__HEADER_LCD0                  
     00000000  s__HEADER_SIO                   
     00000000  s__HEADER_SIO0                  
     00000000  s__HEADER_TIMER                 
     00000000  s__HEADER_TIMER0                
     00000000  s__HEADERa                      
     00000000  s__HEADERb                      
     00000000  s__HEADERc                      
     00000000  s__HEADERd                      
     00000000  s__HEADERe                      
ASxxxx Linker V03.00 + NoICE + sdld,  page 2.
Hexadecimal  [32-Bits]

Area                                    Addr        Size        Decimal Bytes (Attributes)
--------------------------------        ----        ----        ------- ----- ------------
.  .ABS.                            00000000    00000000 =           0. bytes (ABS,CON)

      Value  Global                              Global Defined In Module
      -----  --------------------------------   ------------------------
     00000000  s__HEADERf                      
     00000000  s__HRAM                         
     00000000  s__HRAM12                       
     00000001  ___bank_VM_SGB                     vm_sgb
     00000001  ___bank_scene_0_sprites            scene_0_sprites
     00000001  ___bank_scene_11_init              scene_11_init
     00000001  ___bank_sprite_baby_player         sprite_baby_player
     00000001  b_do_load_palette                  data_manager
     00000001  b_load_background                  data_manager
     00000001  b_load_bkg_tileset                 data_manager
     00000001  b_load_bounds                      data_manager
     00000001  b_load_emote                       data_manager
     00000001  b_load_init                        data_manager
     00000001  b_load_player                      data_manager
     00000001  b_load_scene                       data_manager
     00000001  b_load_sprite                      data_manager
     00000001  b_ui_draw_frame                    ui
     00000001  b_ui_draw_text_buffer_char         ui
     00000001  b_ui_init                          ui
     00000001  b_ui_load_tiles                    ui
     00000001  b_ui_run_menu                      ui
     00000001  b_ui_run_modal                     ui
     00000001  b_ui_set_start_tile                ui
     00000001  l__GSFINAL                      
     00000001  l__HEADER0                      
     00000001  l__HEADER11                     
     00000001  l__HEADER9                      
     00000001  l__HEADERa                      
     00000001  l__HEADERb                      
     00000001  l__HEADERd                      
     00000001  l__HEADERe                      
     00000002  ___bank_cursor_image               cursor_image
     00000002  ___bank_scene_10_init              scene_10_init
     00000002  ___bank_scene_13_init              scene_13_init
     00000002  ___bank_script_27                  script_27
     00000002  ___mute_mask_sound_cancel_vgm      sound_cancel_vgm
     00000002  ___mute_mask_sound_cat_meow_vgm    sound_cat_meow_vgm
     00000002  ___mute_mask_sound_click_vgm       sound_click_vgm
     00000002  ___mute_mask_sound_hurt_vgm        sound_hurt_vgm
     00000002  ___mute_mask_sound_jump_vgm        sound_jump_vgm
     00000002  ___mute_mask_sound_monster_screa   sound_monster_scream_vgm
     00000002  l__HEADER5                      
     00000002  l__HEADERc                      
     00000002  l__HEADERf                      
     00000003  ___bank_ACTOR                      actor
     00000003  ___bank_VM_ACTOR                   vm_actor
     00000003  ___bank_VM_SIO                     vm_sio
     00000003  ___bank_bg_game_over_tileset       bg_game_over_tileset
     00000003  ___bank_scene_12_init              scene_12_init
     00000003  ___bank_scene_1_sprites            scene_1_sprites
     00000003  b_activate_actor                   actor
ASxxxx Linker V03.00 + NoICE + sdld,  page 3.
Hexadecimal  [32-Bits]

Area                                    Addr        Size        Decimal Bytes (Attributes)
--------------------------------        ----        ----        ------- ----- ------------
.  .ABS.                            00000000    00000000 =           0. bytes (ABS,CON)

      Value  Global                              Global Defined In Module
      -----  --------------------------------   ------------------------
     00000003  b_activate_actors_in_col           actor
     00000003  b_activate_actors_in_row           actor
     00000003  b_actor_at_tile                    actor
     00000003  b_actor_get_frame_offset           actor
     00000003  b_actor_in_front_of_player         actor
     00000003  b_actor_overlapping_bb             actor
     00000003  b_actor_overlapping_player         actor
     00000003  b_actor_set_anim_idle              actor
     00000003  b_actor_set_anim_moving            actor
     00000003  b_actor_set_dir                    actor
     00000003  b_actor_set_frame_offset           actor
     00000003  b_actor_set_frames                 actor
     00000003  b_actors_handle_player_collision   actor
     00000003  b_actors_init                      actor
     00000003  b_check_collision_in_direction     actor
     00000003  b_deactivate_actor                 actor
     00000003  b_player_init                      actor
     00000003  b_vm_actor_activate                vm_actor
     00000003  b_vm_actor_deactivate              vm_actor
     00000003  b_vm_actor_emote                   vm_actor
     00000003  b_vm_actor_get_angle               vm_actor
     00000003  b_vm_actor_get_anim_frame          vm_actor
     00000003  b_vm_actor_get_dir                 vm_actor
     00000003  b_vm_actor_get_pos                 vm_actor
     00000003  b_vm_actor_move_cancel             vm_actor
     00000003  b_vm_actor_move_to                 vm_actor
     00000003  b_vm_actor_replace_tile            vm_actor
     00000003  b_vm_actor_set_anim                vm_actor
     00000003  b_vm_actor_set_anim_frame          vm_actor
     00000003  b_vm_actor_set_anim_set            vm_actor
     00000003  b_vm_actor_set_anim_tick           vm_actor
     00000003  b_vm_actor_set_bounds              vm_actor
     00000003  b_vm_actor_set_dir                 vm_actor
     00000003  b_vm_actor_set_flags               vm_actor
     00000003  b_vm_actor_set_move_speed          vm_actor
     00000003  b_vm_actor_set_pos                 vm_actor
     00000003  b_vm_actor_set_spritesheet         vm_actor
     00000003  b_vm_actor_set_spritesheet_by_re   vm_actor
     00000003  b_vm_actor_terminate_update        vm_actor
     00000003  b_vm_sio_exchange                  vm_sio
     00000003  b_vm_sio_set_mode                  vm_sio
     00000003  l__HEADER8                      
     00000003  l__HEADER_LCD0                  
     00000003  l__HRAM12                       
     00000004  ___bank_VM_LOAD_SAVE               vm_load_save
     00000004  ___bank_VM_MAIN                    vm
     00000004  ___bank_bg_outside_tilemap_attr    bg_outside_tilemap_attr
     00000004  ___bank_font_gbs_mono              font_gbs_mono
     00000004  b_platform_init                    platform
     00000004  b_platform_update                  platform
     00000004  b_script_detach_hthread            vm
ASxxxx Linker V03.00 + NoICE + sdld,  page 4.
Hexadecimal  [32-Bits]

Area                                    Addr        Size        Decimal Bytes (Attributes)
--------------------------------        ----        ----        ------- ----- ------------
.  .ABS.                            00000000    00000000 =           0. bytes (ABS,CON)

      Value  Global                              Global Defined In Module
      -----  --------------------------------   ------------------------
     00000004  b_script_execute                   vm
     00000004  b_script_runner_init               vm
     00000004  b_script_terminate                 vm
     00000004  b_vm_call                          vm
     00000004  b_vm_call_far                      vm
     00000004  b_vm_get_indirect                  vm
     00000004  b_vm_get_int16                     vm
     00000004  b_vm_get_int8                      vm
     00000004  b_vm_get_tlocal                    vm
     00000004  b_vm_get_uint8                     vm
     00000004  b_vm_idle                          vm
     00000004  b_vm_if                            vm
     00000004  b_vm_if_const                      vm
     00000004  b_vm_init_rng                      vm
     00000004  b_vm_invoke                        vm
     00000004  b_vm_join                          vm
     00000004  b_vm_jump                          vm
     00000004  b_vm_lock                          vm
     00000004  b_vm_loop                          vm
     00000004  b_vm_memcpy                        vm
     00000004  b_vm_memset                        vm
     00000004  b_vm_poll_loaded                   vm
     00000004  b_vm_pop                           vm
     00000004  b_vm_push                          vm
     00000004  b_vm_push_reference                vm
     00000004  b_vm_push_value                    vm
     00000004  b_vm_push_value_ind                vm
     00000004  b_vm_raise                         vm
     00000004  b_vm_rand                          vm
     00000004  b_vm_reserve                       vm
     00000004  b_vm_ret                           vm
     00000004  b_vm_ret_far                       vm
     00000004  b_vm_save_clear                    vm_load_save
     00000004  b_vm_save_peek                     vm_load_save
     00000004  b_vm_set                           vm
     00000004  b_vm_set_const                     vm
     00000004  b_vm_set_const_int16               vm
     00000004  b_vm_set_const_int8                vm
     00000004  b_vm_set_indirect                  vm
     00000004  b_vm_set_int16                     vm
     00000004  b_vm_set_int8                      vm
     00000004  b_vm_set_uint8                     vm
     00000004  b_vm_terminate                     vm
     00000004  b_vm_test_terminate                vm
     00000004  b_vm_unlock                        vm
     00000004  b_wait_frames                      vm
     00000004  l__CRASH_HEADER1                
     00000004  l__HEADER_SIO0                  
     00000004  l__HEADER_TIMER0                
     00000005  ___bank_bg_3d_hermano2_tileset     bg_3d_hermano2_tileset
     00000005  ___bank_bg_3d_hermano_tileset      bg_3d_hermano_tileset
ASxxxx Linker V03.00 + NoICE + sdld,  page 5.
Hexadecimal  [32-Bits]

Area                                    Addr        Size        Decimal Bytes (Attributes)
--------------------------------        ----        ----        ------- ----- ------------
.  .ABS.                            00000000    00000000 =           0. bytes (ABS,CON)

      Value  Global                              Global Defined In Module
      -----  --------------------------------   ------------------------
     00000005  ___bank_bg_3d_waraya_tileset       bg_3d_waraya_tileset
     00000005  ___bank_bg_outside_tilemap         bg_outside_tilemap
     00000005  ___bank_scene_outside_collisions   scene_outside_collisions
     00000005  b_SIO_init                         sio
     00000005  l__CRASH_HEADER0                
     00000005  l__HEADER1                      
     00000006  ___bank_bg_3d_pig_tileset          bg_3d_pig_tileset
     00000006  ___bank_bg_ending_2a_tileset       bg_ending_2a_tileset
     00000006  ___bank_bg_ending_2b_tileset       bg_ending_2b_tileset
     00000006  ___bank_bg_ending_5a_tileset       bg_ending_5a_tileset
     00000006  ___bank_bg_outside_tileset         bg_outside_tileset
     00000006  ___bank_scene_outside_sprites      scene_outside_sprites
     00000006  ___bank_sprite_3d_hermano_flare_   sprite_3d_hermano_flare_tile
     00000006  l__HEADER7                      
     00000007  ___bank_bg_3d_rabbit_tileset       bg_3d_rabbit_tileset
     00000007  ___bank_bg_3d_warangka_tileset     bg_3d_warangka_tileset
     00000007  ___bank_bg_cave_tileset            bg_cave_tileset
     00000007  ___bank_bg_credits_tileset         bg_credits_tileset
     00000007  ___bank_bg_ending_4a_tileset       bg_ending_4a_tileset
     00000007  ___bank_bg_ending_4b_tileset       bg_ending_4b_tileset
     00000007  ___bank_bg_ending_6_tileset        bg_ending_6_tileset
     00000007  l__HEADER2                      
     00000008  ___bank_VM_UI                      vm_ui
     00000008  ___bank_bg_cave_tilemap            bg_cave_tilemap
     00000008  ___bank_bg_cave_tilemap_attr       bg_cave_tilemap_attr
     00000008  ___bank_bg_ending_1_tileset        bg_ending_1_tileset
     00000008  ___bank_bg_ending_3_tileset        bg_ending_3_tileset
     00000008  ___bank_bg_ending_5b_tileset       bg_ending_5b_tileset
     00000008  ___bank_bootstrap_script           
     00000008  ___bank_scene_0_collisions         scene_0_collisions
     00000008  ___bank_script_input_4             script_input_4
     00000008  ___bank_sprite_3d_rabbit_tileset   sprite_3d_rabbit_tileset
     00000008  b_vm_choice                        vm_ui
     00000008  b_vm_display_text                  vm_ui
     00000008  b_vm_overlay_clear                 vm_ui
     00000008  b_vm_overlay_move_to               vm_ui
     00000008  b_vm_overlay_scroll                vm_ui
     00000008  b_vm_overlay_set_map               vm_ui
     00000008  b_vm_overlay_set_scroll            vm_ui
     00000008  b_vm_overlay_set_submap            vm_ui
     00000008  b_vm_overlay_set_submap_ex         vm_ui
     00000008  b_vm_overlay_setpos                vm_ui
     00000008  b_vm_overlay_show                  vm_ui
     00000008  b_vm_overlay_wait                  vm_ui
     00000008  b_vm_set_font                      vm_ui
     00000008  b_vm_set_text_sound                vm_ui
     00000008  b_vm_switch_text_layer             vm_ui
     00000008  l__HEADER3                      
     00000009  ___bank_VM_GAMEBOY                 vm_gameboy
     00000009  ___bank_scene_9_init               scene_9_init
     00000009  ___bank_script_5                   script_5
ASxxxx Linker V03.00 + NoICE + sdld,  page 6.
Hexadecimal  [32-Bits]

Area                                    Addr        Size        Decimal Bytes (Attributes)
--------------------------------        ----        ----        ------- ----- ------------
.  .ABS.                            00000000    00000000 =           0. bytes (ABS,CON)

      Value  Global                              Global Defined In Module
      -----  --------------------------------   ------------------------
     00000009  ___bank_script_8                   script_8
     00000009  ___bank_song_template_0_Data       song_template_0_Data
     00000009  ___bank_sprite_3d_pig              sprite_3d_pig
     00000009  ___bank_sprite_3d_rabbit           sprite_3d_rabbit
     00000009  b_adventure_init                   adventure
     00000009  b_adventure_update                 adventure
     00000009  b_scroll_init                      scroll
     00000009  b_scroll_repaint                   scroll
     00000009  b_scroll_reset                     scroll
     00000009  b_scroll_update                    scroll
     00000009  b_shmup_init                       shmup
     00000009  b_shmup_update                     shmup
     00000009  b_topdown_init                     topdown
     00000009  b_topdown_update                   topdown
     00000009  b_vm_context_prepare               vm_gameboy
     00000009  b_vm_fade                          vm_gameboy
     00000009  b_vm_get_tile_xy                   vm_gameboy
     00000009  b_vm_input_attach                  vm_gameboy
     00000009  b_vm_input_detach                  vm_gameboy
     00000009  b_vm_input_get                     vm_gameboy
     00000009  b_vm_input_wait                    vm_gameboy
     00000009  b_vm_load_tiles                    vm_gameboy
     00000009  b_vm_load_tileset                  vm_gameboy
     00000009  b_vm_poll                          vm_gameboy
     00000009  b_vm_replace_tile                  vm_gameboy
     00000009  b_vm_replace_tile_xy               vm_gameboy
     00000009  b_vm_rumble                        vm_gameboy
     00000009  b_vm_set_sprite_mode               vm_gameboy
     00000009  b_vm_set_sprites_visible           vm_gameboy
     00000009  b_vm_timer_prepare                 vm_gameboy
     00000009  b_vm_timer_reset                   vm_gameboy
     00000009  b_vm_timer_set                     vm_gameboy
     00000009  b_vm_timer_stop                    vm_gameboy
     0000000A  ___bank_bg_3d_hermano2_tilemap     bg_3d_hermano2_tilemap
     0000000A  ___bank_bg_3d_hermano2_tilemap_a   bg_3d_hermano2_tilemap_attr
     0000000A  ___bank_scene_1_collisions         scene_1_collisions
     0000000A  ___bank_script_11                  script_11
     0000000A  ___bank_script_13                  script_13
     0000000A  ___bank_script_20                  script_20
     0000000A  ___bank_script_engine_init         
     0000000A  ___bank_song_song_template_2_Dat   song_song_template_2_Data
     0000000A  ___bank_sprite_3d_pig_tileset      sprite_3d_pig_tileset
     0000000A  ___bank_sprite_player_tileset      sprite_player_tileset
     0000000A  ___bank_trigger_4_interact         trigger_4_interact
     0000000A  ___mute_mask_sound_explosion_vgm   sound_explosion_vgm
     0000000A  b___HandleCrash_banked             
     0000000A  b_core_reset                       core
     0000000A  b_core_run                         core
     0000000A  b_data_clear                       load_save
     0000000A  b_data_init                        load_save
     0000000A  b_data_load                        load_save
ASxxxx Linker V03.00 + NoICE + sdld,  page 7.
Hexadecimal  [32-Bits]

Area                                    Addr        Size        Decimal Bytes (Attributes)
--------------------------------        ----        ----        ------- ----- ------------
.  .ABS.                            00000000    00000000 =           0. bytes (ABS,CON)

      Value  Global                              Global Defined In Module
      -----  --------------------------------   ------------------------
     0000000A  b_data_peek                        load_save
     0000000A  b_data_save                        load_save
     0000000A  b_gbprinter_detect                 gbprinter
     0000000A  b_gbprinter_print_overlay          gbprinter
     0000000A  b_pointnclick_init                 pointnclick
     0000000A  b_pointnclick_update               pointnclick
     0000000A  b_projectile_launch                projectiles
     0000000A  b_projectiles_init                 projectiles
     0000000A  b_trigger_activate_at              trigger
     0000000A  b_trigger_activate_at_intersecti   trigger
     0000000A  b_trigger_at_intersection          trigger
     0000000A  b_trigger_at_tile                  trigger
     0000000A  b_trigger_interact                 trigger
     0000000A  b_trigger_reset                    trigger
     0000000B  ___bank_VM_CAMERA                  vm_camera
     0000000B  ___bank_VM_PALETTE                 vm_palette
     0000000B  ___bank_actor_8_update             actor_8_update
     0000000B  ___bank_bg_3d_hermano_tilemap      bg_3d_hermano_tilemap
     0000000B  ___bank_bg_3d_hermano_tilemap_at   bg_3d_hermano_tilemap_attr
     0000000B  ___bank_bg_3d_pig_tilemap          bg_3d_pig_tilemap
     0000000B  ___bank_bg_3d_pig_tilemap_attr     bg_3d_pig_tilemap_attr
     0000000B  ___bank_bg_3d_rabbit_tilemap       bg_3d_rabbit_tilemap
     0000000B  ___bank_bg_3d_rabbit_tilemap_att   bg_3d_rabbit_tilemap_attr
     0000000B  ___bank_palette_0                  palette_0
     0000000B  ___bank_scene_10_sprites           scene_10_sprites
     0000000B  ___bank_scene_20_init              scene_20_init
     0000000B  ___bank_scene_22_init              scene_22_init
     0000000B  ___bank_scene_23_init              scene_23_init
     0000000B  ___bank_scene_4_init               scene_4_init
     0000000B  ___bank_script_10                  script_10
     0000000B  ___bank_script_12                  script_12
     0000000B  ___bank_script_15                  script_15
     0000000B  ___bank_script_16                  script_16
     0000000B  ___bank_script_17                  script_17
     0000000B  ___bank_script_2                   script_2
     0000000B  ___bank_script_3                   script_3
     0000000B  ___bank_script_4                   script_4
     0000000B  ___bank_script_9                   script_9
     0000000B  ___bank_sound_monster_scream_vgm   sound_monster_scream_vgm
     0000000B  ___bank_sprite_3d_hermano_flare    sprite_3d_hermano_flare
     0000000B  ___bank_sprite_3d_hermano_tilese   sprite_3d_hermano_tileset
     0000000B  ___bank_sprite_hermano_topdown_t   sprite_hermano_topdown_tiles
     0000000B  ___bank_sprite_pig_tileset         sprite_pig_tileset
     0000000B  ___bank_trigger_5_interact         trigger_5_interact
     0000000B  b_camera_shake_frames              vm_camera
     0000000B  b_fade_applypalettechange          fade_manager
     0000000B  b_fade_in                          fade_manager
     0000000B  b_fade_in_modal                    fade_manager
     0000000B  b_fade_init                        fade_manager
     0000000B  b_fade_out                         fade_manager
     0000000B  b_fade_out_modal                   fade_manager
ASxxxx Linker V03.00 + NoICE + sdld,  page 8.
Hexadecimal  [32-Bits]

Area                                    Addr        Size        Decimal Bytes (Attributes)
--------------------------------        ----        ----        ------- ----- ------------
.  .ABS.                            00000000    00000000 =           0. bytes (ABS,CON)

      Value  Global                              Global Defined In Module
      -----  --------------------------------   ------------------------
     0000000B  b_fade_setspeed                    fade_manager
     0000000B  b_fade_update                      fade_manager
     0000000B  b_set_sgb_border                   sgb_border
     0000000B  b_vm_camera_move_to                vm_camera
     0000000B  b_vm_camera_set_pos                vm_camera
     0000000B  b_vm_load_palette                  vm_palette
     0000000C  ___bank_avatar_font_0              avatar_font_0
     0000000C  ___bank_bg_3d_warangka_tilemap     bg_3d_warangka_tilemap
     0000000C  ___bank_bg_3d_warangka_tilemap_a   bg_3d_warangka_tilemap_attr
     0000000C  ___bank_bg_3d_waraya_tilemap       bg_3d_waraya_tilemap
     0000000C  ___bank_bg_3d_waraya_tilemap_att   bg_3d_waraya_tilemap_attr
     0000000C  ___bank_bg_credits_tilemap         bg_credits_tilemap
     0000000C  ___bank_bg_credits_tilemap_attr    bg_credits_tilemap_attr
     0000000C  ___bank_bg_ending_1_tilemap        bg_ending_1_tilemap
     0000000C  ___bank_bg_ending_1_tilemap_attr   bg_ending_1_tilemap_attr
     0000000C  ___bank_bg_ending_2a_tilemap       bg_ending_2a_tilemap
     0000000C  ___bank_bg_ending_2a_tilemap_att   bg_ending_2a_tilemap_attr
     0000000C  ___bank_bg_ending_2b_tilemap       bg_ending_2b_tilemap
     0000000C  ___bank_bg_ending_2b_tilemap_att   bg_ending_2b_tilemap_attr
     0000000C  ___bank_bg_ending_3_tilemap        bg_ending_3_tilemap
     0000000C  ___bank_bg_ending_3_tilemap_attr   bg_ending_3_tilemap_attr
     0000000C  ___bank_bg_ending_4a_tilemap       bg_ending_4a_tilemap
     0000000C  ___bank_bg_ending_4a_tilemap_att   bg_ending_4a_tilemap_attr
     0000000C  ___bank_bg_ending_4b_tilemap       bg_ending_4b_tilemap
     0000000C  ___bank_bg_ending_4b_tilemap_att   bg_ending_4b_tilemap_attr
     0000000C  ___bank_bg_ending_5a_tilemap       bg_ending_5a_tilemap
     0000000C  ___bank_bg_ending_5a_tilemap_att   bg_ending_5a_tilemap_attr
     0000000C  ___bank_bg_ending_5b_tilemap       bg_ending_5b_tilemap
     0000000C  ___bank_bg_ending_5b_tilemap_att   bg_ending_5b_tilemap_attr
     0000000C  ___bank_bg_ending_6_tilemap        bg_ending_6_tilemap
     0000000C  ___bank_bg_ending_6_tilemap_attr   bg_ending_6_tilemap_attr
     0000000C  ___bank_bg_game_over_tilemap       bg_game_over_tilemap
     0000000C  ___bank_bg_game_over_tilemap_att   bg_game_over_tilemap_attr
     0000000C  ___bank_scene_10_collisions        scene_10_collisions
     0000000C  ___bank_scene_11_collisions        scene_11_collisions
     0000000C  ___bank_scene_11_sprites           scene_11_sprites
     0000000C  ___bank_scene_12_collisions        scene_12_collisions
     0000000C  ___bank_scene_13_collisions        scene_13_collisions
     0000000C  ___bank_scene_13_sprites           scene_13_sprites
     0000000C  ___bank_scene_14_collisions        scene_14_collisions
     0000000C  ___bank_scene_16_collisions        scene_16_collisions
     0000000C  ___bank_scene_17_collisions        scene_17_collisions
     0000000C  ___bank_scene_18_collisions        scene_18_collisions
     0000000C  ___bank_scene_21_collisions        scene_21_collisions
     0000000C  ___bank_scene_2_init               scene_2_init
     0000000C  ___bank_scene_5_init               scene_5_init
     0000000C  ___bank_scene_9_collisions         scene_9_collisions
     0000000C  ___bank_scene_title_screen_init    scene_title_screen_init
     0000000C  ___bank_script_24                  script_24
     0000000C  ___bank_sprite_3d_warangka_tiles   sprite_3d_warangka_tileset
     0000000C  ___bank_sprite_3d_waraya           sprite_3d_waraya
ASxxxx Linker V03.00 + NoICE + sdld,  page 9.
Hexadecimal  [32-Bits]

Area                                    Addr        Size        Decimal Bytes (Attributes)
--------------------------------        ----        ----        ------- ----- ------------
.  .ABS.                            00000000    00000000 =           0. bytes (ABS,CON)

      Value  Global                              Global Defined In Module
      -----  --------------------------------   ------------------------
     0000000C  __start_save                    
     0000000D  ___bank_VM_GBPRINTER               vm_gbprinter
     0000000D  ___bank_VM_MATH                    vm_math
     0000000D  ___bank_VM_MUSIC                   vm_music
     0000000D  ___bank_VM_PROJECTILE              vm_projectiles
     0000000D  ___bank_VM_RTC                     vm_rtc
     0000000D  ___bank_VM_SCENE                   vm_scene
     0000000D  ___bank_actor_3_update             actor_3_update
     0000000D  ___bank_actor_4_update             actor_4_update
     0000000D  ___bank_frame_image                frame_image
     0000000D  ___bank_scene_12_sprites           scene_12_sprites
     0000000D  ___bank_scene_14_init              scene_14_init
     0000000D  ___bank_scene_16_init              scene_16_init
     0000000D  ___bank_scene_17_init              scene_17_init
     0000000D  ___bank_scene_18_init              scene_18_init
     0000000D  ___bank_scene_19_collisions        scene_19_collisions
     0000000D  ___bank_scene_19_init              scene_19_init
     0000000D  ___bank_scene_1_init               scene_1_init
     0000000D  ___bank_scene_20_collisions        scene_20_collisions
     0000000D  ___bank_scene_21_init              scene_21_init
     0000000D  ___bank_scene_22_collisions        scene_22_collisions
     0000000D  ___bank_scene_23_collisions        scene_23_collisions
     0000000D  ___bank_scene_24_collisions        scene_24_collisions
     0000000D  ___bank_scene_24_init              scene_24_init
     0000000D  ___bank_scene_2_collisions         scene_2_collisions
     0000000D  ___bank_scene_3_collisions         scene_3_collisions
     0000000D  ___bank_scene_3_init               scene_3_init
     0000000D  ___bank_scene_4_collisions         scene_4_collisions
     0000000D  ___bank_scene_5_collisions         scene_5_collisions
     0000000D  ___bank_scene_9_actors             scene_9_actors
     0000000D  ___bank_scene_9_sprites            scene_9_sprites
     0000000D  ___bank_scene_outside_actors       scene_outside_actors
     0000000D  ___bank_scene_outside_init         scene_outside_init
     0000000D  ___bank_scene_title_screen_colli   scene_title_screen_collision
     0000000D  ___bank_script_18                  script_18
     0000000D  ___bank_script_21                  script_21
     0000000D  ___bank_script_23                  script_23
     0000000D  ___bank_script_26                  script_26
     0000000D  ___bank_script_28                  script_28
     0000000D  ___bank_script_6                   script_6
     0000000D  ___bank_script_7                   script_7
     0000000D  ___bank_script_input_0             script_input_0
     0000000D  ___bank_script_input_1             script_input_1
     0000000D  ___bank_script_input_5             script_input_5
     0000000D  ___bank_script_input_8             script_input_8
     0000000D  ___bank_sound_cancel_vgm           sound_cancel_vgm
     0000000D  ___bank_sound_explosion_vgm        sound_explosion_vgm
     0000000D  ___bank_sprite_3d_hermano          sprite_3d_hermano
     0000000D  ___bank_sprite_3d_warangka         sprite_3d_warangka
     0000000D  ___bank_sprite_3d_waraya_tileset   sprite_3d_waraya_tileset
     0000000D  ___bank_sprite_baby_player_tiles   sprite_baby_player_tileset
ASxxxx Linker V03.00 + NoICE + sdld,  page 10.
Hexadecimal  [32-Bits]

Area                                    Addr        Size        Decimal Bytes (Attributes)
--------------------------------        ----        ----        ------- ----- ------------
.  .ABS.                            00000000    00000000 =           0. bytes (ABS,CON)

      Value  Global                              Global Defined In Module
      -----  --------------------------------   ------------------------
     0000000D  ___bank_sprite_hermano_topdown     sprite_hermano_topdown
     0000000D  ___bank_sprite_lion                sprite_lion
     0000000D  ___bank_sprite_lion_tileset        sprite_lion_tileset
     0000000D  ___bank_sprite_pig                 sprite_pig
     0000000D  ___bank_sprite_player              sprite_player
     0000000D  ___bank_sprite_rabbit              sprite_rabbit
     0000000D  ___bank_sprite_rabbit_tileset      sprite_rabbit_tileset
     0000000D  ___bank_sprite_river_animation     sprite_river_animation
     0000000D  ___bank_trigger_1_interact         trigger_1_interact
     0000000D  ___bank_trigger_3_interact         trigger_3_interact
     0000000D  ___bank_trigger_6_interact         trigger_6_interact
     0000000D  ___bank_trigger_8_interact         trigger_8_interact
     0000000D  b_erase_flash                      
     0000000D  b_events_init                      events
     0000000D  b_itoa_fmt                         vm_ui_a
     0000000D  b_music_events_poll                music_manager
     0000000D  b_music_init_driver                music_manager
     0000000D  b_music_init_events                music_manager
     0000000D  b_restore_sram                     flasher
     0000000D  b_restore_sram_bank                flasher
     0000000D  b_save_sram                        flasher
     0000000D  b_save_sram_banks                  
     0000000D  b_timers_init                      events
     0000000D  b_vm_cos_scale                     vm_math
     0000000D  b_vm_music_mute                    vm_music
     0000000D  b_vm_music_play                    vm_music
     0000000D  b_vm_music_routine                 vm_music
     0000000D  b_vm_music_setpos                  vm_music
     0000000D  b_vm_music_stop                    vm_music
     0000000D  b_vm_print_detect                  vm_gbprinter
     0000000D  b_vm_print_overlay                 vm_gbprinter
     0000000D  b_vm_projectile_launch             vm_projectiles
     0000000D  b_vm_projectile_load_type          vm_projectiles
     0000000D  b_vm_rtc_get                       vm_rtc
     0000000D  b_vm_rtc_latch                     vm_rtc
     0000000D  b_vm_rtc_set                       vm_rtc
     0000000D  b_vm_rtc_start                     vm_rtc
     0000000D  b_vm_scene_pop                     vm_scene
     0000000D  b_vm_scene_pop_all                 vm_scene
     0000000D  b_vm_scene_push                    vm_scene
     0000000D  b_vm_scene_stack_reset             vm_scene
     0000000D  b_vm_sfx_play                      vm_music
     0000000D  b_vm_sin_scale                     vm_math
     0000000D  b_vm_sound_mastervol               vm_music
     0000000E  ___bank_actor_0_update             actor_0_update
     0000000E  ___bank_actor_1_update             actor_1_update
     0000000E  ___bank_actor_20_interact          actor_20_interact
     0000000E  ___bank_actor_23_update            actor_23_update
     0000000E  ___bank_actor_24_interact          actor_24_interact
     0000000E  ___bank_actor_2_update             actor_2_update
     0000000E  ___bank_actor_3_interact           actor_3_interact
ASxxxx Linker V03.00 + NoICE + sdld,  page 11.
Hexadecimal  [32-Bits]

Area                                    Addr        Size        Decimal Bytes (Attributes)
--------------------------------        ----        ----        ------- ----- ------------
.  .ABS.                            00000000    00000000 =           0. bytes (ABS,CON)

      Value  Global                              Global Defined In Module
      -----  --------------------------------   ------------------------
     0000000E  ___bank_actor_4_interact           actor_4_interact
     0000000E  ___bank_actor_5_interact           actor_5_interact
     0000000E  ___bank_actor_7_update             actor_7_update
     0000000E  ___bank_actor_8_interact           actor_8_interact
     0000000E  ___bank_bg_3d_hermano              bg_3d_hermano
     0000000E  ___bank_bg_3d_hermano2             bg_3d_hermano2
     0000000E  ___bank_bg_3d_pig                  bg_3d_pig
     0000000E  ___bank_bg_3d_rabbit               bg_3d_rabbit
     0000000E  ___bank_bg_3d_warangka             bg_3d_warangka
     0000000E  ___bank_bg_3d_waraya               bg_3d_waraya
     0000000E  ___bank_bg_cave                    bg_cave
     0000000E  ___bank_bg_credits                 bg_credits
     0000000E  ___bank_bg_ending_1                bg_ending_1
     0000000E  ___bank_bg_ending_2a               bg_ending_2a
     0000000E  ___bank_bg_ending_2b               bg_ending_2b
     0000000E  ___bank_bg_ending_3                bg_ending_3
     0000000E  ___bank_bg_ending_4a               bg_ending_4a
     0000000E  ___bank_bg_ending_4b               bg_ending_4b
     0000000E  ___bank_bg_ending_5a               bg_ending_5a
     0000000E  ___bank_bg_ending_5b               bg_ending_5b
     0000000E  ___bank_bg_ending_6                bg_ending_6
     0000000E  ___bank_bg_game_over               bg_game_over
     0000000E  ___bank_bg_outside                 bg_outside
     0000000E  ___bank_emote_question             emote_question
     0000000E  ___bank_emote_shock                emote_shock
     0000000E  ___bank_palette_1                  palette_1
     0000000E  ___bank_palette_10                 palette_10
     0000000E  ___bank_palette_11                 palette_11
     0000000E  ___bank_palette_12                 palette_12
     0000000E  ___bank_palette_13                 palette_13
     0000000E  ___bank_palette_14                 palette_14
     0000000E  ___bank_palette_15                 palette_15
     0000000E  ___bank_palette_16                 palette_16
     0000000E  ___bank_palette_17                 palette_17
     0000000E  ___bank_palette_18                 palette_18
     0000000E  ___bank_palette_19                 palette_19
     0000000E  ___bank_palette_2                  palette_2
     0000000E  ___bank_palette_20                 palette_20
     0000000E  ___bank_palette_21                 palette_21
     0000000E  ___bank_palette_22                 palette_22
     0000000E  ___bank_palette_23                 palette_23
     0000000E  ___bank_palette_24                 palette_24
     0000000E  ___bank_palette_25                 palette_25
     0000000E  ___bank_palette_26                 palette_26
     0000000E  ___bank_palette_3                  palette_3
     0000000E  ___bank_palette_4                  palette_4
     0000000E  ___bank_palette_5                  palette_5
     0000000E  ___bank_palette_6                  palette_6
     0000000E  ___bank_palette_7                  palette_7
     0000000E  ___bank_palette_8                  palette_8
     0000000E  ___bank_palette_9                  palette_9
ASxxxx Linker V03.00 + NoICE + sdld,  page 12.
Hexadecimal  [32-Bits]

Area                                    Addr        Size        Decimal Bytes (Attributes)
--------------------------------        ----        ----        ------- ----- ------------
.  .ABS.                            00000000    00000000 =           0. bytes (ABS,CON)

      Value  Global                              Global Defined In Module
      -----  --------------------------------   ------------------------
     0000000E  ___bank_scene_0                    scene_0
     0000000E  ___bank_scene_0_actors             scene_0_actors
     0000000E  ___bank_scene_0_init               scene_0_init
     0000000E  ___bank_scene_0_triggers           scene_0_triggers
     0000000E  ___bank_scene_1                    scene_1
     0000000E  ___bank_scene_10                   scene_10
     0000000E  ___bank_scene_10_actors            scene_10_actors
     0000000E  ___bank_scene_11                   scene_11
     0000000E  ___bank_scene_11_actors            scene_11_actors
     0000000E  ___bank_scene_12                   scene_12
     0000000E  ___bank_scene_12_actors            scene_12_actors
     0000000E  ___bank_scene_13                   scene_13
     0000000E  ___bank_scene_13_actors            scene_13_actors
     0000000E  ___bank_scene_14                   scene_14
     0000000E  ___bank_scene_16                   scene_16
     0000000E  ___bank_scene_17                   scene_17
     0000000E  ___bank_scene_18                   scene_18
     0000000E  ___bank_scene_19                   scene_19
     0000000E  ___bank_scene_1_actors             scene_1_actors
     0000000E  ___bank_scene_2                    scene_2
     0000000E  ___bank_scene_20                   scene_20
     0000000E  ___bank_scene_21                   scene_21
     0000000E  ___bank_scene_22                   scene_22
     0000000E  ___bank_scene_23                   scene_23
     0000000E  ___bank_scene_24                   scene_24
     0000000E  ___bank_scene_3                    scene_3
     0000000E  ___bank_scene_4                    scene_4
     0000000E  ___bank_scene_5                    scene_5
     0000000E  ___bank_scene_9                    scene_9
     0000000E  ___bank_scene_outside              scene_outside
     0000000E  ___bank_scene_outside_triggers     scene_outside_triggers
     0000000E  ___bank_scene_title_screen         scene_title_screen
     0000000E  ___bank_script_14                  script_14
     0000000E  ___bank_script_25                  script_25
     0000000E  ___bank_script_29                  script_29
     0000000E  ___bank_script_input_10            script_input_10
     0000000E  ___bank_script_input_11            script_input_11
     0000000E  ___bank_script_input_12            script_input_12
     0000000E  ___bank_script_input_13            script_input_13
     0000000E  ___bank_script_input_2             script_input_2
     0000000E  ___bank_script_input_3             script_input_3
     0000000E  ___bank_script_input_6             script_input_6
     0000000E  ___bank_script_input_7             script_input_7
     0000000E  ___bank_script_input_9             script_input_9
     0000000E  ___bank_sound_cat_meow_vgm         sound_cat_meow_vgm
     0000000E  ___bank_sound_click_vgm            sound_click_vgm
     0000000E  ___bank_sound_hurt_vgm             sound_hurt_vgm
     0000000E  ___bank_sound_jump_vgm             sound_jump_vgm
     0000000E  ___bank_sprite_adult_tiger_0       sprite_adult_tiger_0
     0000000E  ___bank_sprite_adult_tiger_0_til   sprite_adult_tiger_0_tileset
     0000000E  ___bank_sprite_big_rock            sprite_big_rock
ASxxxx Linker V03.00 + NoICE + sdld,  page 13.
Hexadecimal  [32-Bits]

Area                                    Addr        Size        Decimal Bytes (Attributes)
--------------------------------        ----        ----        ------- ----- ------------
.  .ABS.                            00000000    00000000 =           0. bytes (ABS,CON)

      Value  Global                              Global Defined In Module
      -----  --------------------------------   ------------------------
     0000000E  ___bank_sprite_big_rock_tileset    sprite_big_rock_tileset
     0000000E  ___bank_sprite_cat                 sprite_cat
     0000000E  ___bank_sprite_river_animation_t   sprite_river_animation_tiles
     0000000E  ___bank_spritesheet_none           spritesheet_none
     0000000E  ___bank_trigger_0_interact         trigger_0_interact
     0000000E  ___bank_trigger_2_interact         trigger_2_interact
     0000000E  ___bank_trigger_7_interact         trigger_7_interact
     0000000E  b_CGBZeroPalette                   palette
     0000000E  b_camera_init                      camera
     0000000E  b_camera_reset                     camera
     0000000E  b_input_init                       input
     0000000E  b_logo_init                        logo
     0000000E  b_logo_update                      logo
     0000000E  b_palette_init                     palette
     0000000E  b_parallax_init                    parallax
     0000000E  b_remove_LCD_ISRs                  interrupts
     0000000E  b_scroll_rect                      
     00000011  l__EHL_TRAMPOLINE0              
     00000019  l__INITIALIZED                  
     00000019  l__INITIALIZER                  
     00000027  l__GSINIT                       
     00000030  l__HEADER6                      
     0000004E  l__HEADER4                      
     00000082  l__HEADER10                     
     000001CB  l__CRASH_SCRATCH2               
     00000200  s__CODE                         
     00000C51  l__CODE                         
     00000E51  s__HOME                         
     000018C0  l__CODE_14                      
     0000197F  l__DATA                         
     00002000  _rROMB0                            
     00002C81  l__HOME                         
     00003000  _rROMB1                            
     00003AD2  s__BASE                         
     00003AD2  s__CODE_0                       
     00003AD2  s__INITIALIZER                  
     00003AD2  s__LIT                          
     00003AEB  s__GSINIT                       
     00003B12  s__GSFINAL                      
     00003FFE  l__CODE_13                      
     00003FFE  l__CODE_6                       
     00003FFE  l__CODE_7                       
     00003FFE  l__CODE_8                       
     00003FFF  l__CODE_1                       
     00003FFF  l__CODE_11                      
     00003FFF  l__CODE_12                      
     00003FFF  l__CODE_5                       
     00003FFF  l__CODE_9                       
     00004000  _RTC_SELECT_REG                    vm_rtc
     00004000  _rRAMB                             
     00004000  l__CODE_10                      
ASxxxx Linker V03.00 + NoICE + sdld,  page 14.
Hexadecimal  [32-Bits]

Area                                    Addr        Size        Decimal Bytes (Attributes)
--------------------------------        ----        ----        ------- ----- ------------
.  .ABS.                            00000000    00000000 =           0. bytes (ABS,CON)

      Value  Global                              Global Defined In Module
      -----  --------------------------------   ------------------------
     00004000  l__CODE_2                       
     00004000  l__CODE_3                       
     00004000  l__CODE_4                       
     00006000  _RTC_LATCH_REG                     vm_rtc
     00008000  __VRAM                             
     00008000  __VRAM8000                         
     00008800  __VRAM8800                         
     00009000  __VRAM9000                         
     00009800  __SCRN0                            
     00009C00  __SCRN1                            
     0000A000  _RTC_VALUE_REG                     vm_rtc
     0000A000  __SRAM                             
     0000C000  __RAM                              
     0000C000  _shadow_OAM                     
     0000C0A0  s__DATA                         
     0000D000  __RAMBANK                          
     0000DA1F  s__BSS                          
     0000DA1F  s__INITIALIZED                  
     0000DA38  s__HEAP                         
     0000DF00  .STACK                          
     0000DF00  _shadow_OAM2                       absolute
     0000DFA0  _BkgPalette                        absolute
     0000DFE0  _vwf_tile_data                     absolute
     0000FE00  __OAMRAM                           
     0000FF00  _P1_REG                            
     0000FF00  __IO                               
     0000FF01  _SB_REG                            
     0000FF02  _SC_REG                            
     0000FF04  _DIV_REG                           
     0000FF05  _TIMA_REG                          
     0000FF06  _TMA_REG                           
     0000FF07  _TAC_REG                           
     0000FF0F  _IF_REG                            
     0000FF10  _NR10_REG                          
     0000FF11  _NR11_REG                          
     0000FF12  _NR12_REG                          
     0000FF13  _NR13_REG                          
     0000FF14  _NR14_REG                          
     0000FF16  _NR21_REG                          
     0000FF17  _NR22_REG                          
     0000FF18  _NR23_REG                          
     0000FF19  _NR24_REG                          
     0000FF1A  _NR30_REG                          
     0000FF1B  _NR31_REG                          
     0000FF1C  _NR32_REG                          
     0000FF1D  _NR33_REG                          
     0000FF1E  _NR34_REG                          
     0000FF20  _NR41_REG                          
     0000FF21  _NR42_REG                          
     0000FF22  _NR43_REG                          
     0000FF23  _NR44_REG                          
ASxxxx Linker V03.00 + NoICE + sdld,  page 15.
Hexadecimal  [32-Bits]

Area                                    Addr        Size        Decimal Bytes (Attributes)
--------------------------------        ----        ----        ------- ----- ------------
.  .ABS.                            00000000    00000000 =           0. bytes (ABS,CON)

      Value  Global                              Global Defined In Module
      -----  --------------------------------   ------------------------
     0000FF24  _NR50_REG                          
     0000FF25  _NR51_REG                          
     0000FF26  _NR52_REG                          
     0000FF30  _AUD3WAVE                          
     0000FF30  _PCM_SAMPLE                        
     0000FF30  __AUD3WAVERAM                      
     0000FF40  _LCDC_REG                          
     0000FF41  _STAT_REG                          
     0000FF42  _SCY_REG                           
     0000FF43  _SCX_REG                           
     0000FF44  _LY_REG                            
     0000FF45  _LYC_REG                           
     0000FF46  _DMA_REG                           
     0000FF47  _BGP_REG                           
     0000FF48  _OBP0_REG                          
     0000FF49  _OBP1_REG                          
     0000FF4A  _WY_REG                            
     0000FF4B  _WX_REG                            
     0000FF4D  _KEY1_REG                          
     0000FF4F  _VBK_REG                           
     0000FF51  _HDMA1_REG                         
     0000FF52  _HDMA2_REG                         
     0000FF53  _HDMA3_REG                         
     0000FF54  _HDMA4_REG                         
     0000FF55  _HDMA5_REG                         
     0000FF56  _RP_REG                            
     0000FF68  _BCPS_REG                          
     0000FF69  _BCPD_REG                          
     0000FF6A  _OCPS_REG                          
     0000FF6B  _OCPD_REG                          
     0000FF70  _SVBK_REG                          
     0000FF76  _PCM12_REG                         
     0000FF77  _PCM34_REG                         
     0000FF80  .refresh_OAM                    
     0000FF80  __HRAM                             
     0000FFFF  _IE_REG                            
     00014000  s__CODE_1                       
     00024000  s__CODE_2                       
     00034000  s__CODE_3                       
     00044000  s__CODE_4                       
     00054000  s__CODE_5                       
     00064000  s__CODE_6                       
     00074000  s__CODE_7                       
     00084000  s__CODE_8                       
     00094000  s__CODE_9                       
     000A4000  s__CODE_10                      
     000B4000  s__CODE_11                      
     000C4000  s__CODE_12                      
     000D4000  s__CODE_13                      
     000E4000  s__CODE_14                      

ASxxxx Linker V03.00 + NoICE + sdld,  page 16.
Hexadecimal  [32-Bits]

Area                                    Addr        Size        Decimal Bytes (Attributes)
--------------------------------        ----        ----        ------- ----- ------------
_CODE                               00000200    00000C51 =        3153. bytes (REL,CON)

      Value  Global                              Global Defined In Module
      -----  --------------------------------   ------------------------
     00000200  ___HandleCrash                     
     0000020A  _SIO_send_byte                     
     0000021D  _SIO_receive                       
     0000022E  _SetTile                           
     0000023D  _set_win_tile_xy                   
     00000242  _set_bkg_tile_xy                   
     00000265  _GetWinAddr                        
     0000026D  _GetBkgAddr                        
     0000027B  _state_init                        
     00000280  _state_update                      
     000002A2  _ui_time_masks                     
     000002AA  _ui_print_shift_char               
     0000032D  _ui_draw_frame_row                 
     00000336  .ui_draw_frame_row                 
     0000035F  _script_cmds                       vm_instructions
     00000593  _save_signature                    game_signature
     00000597  _start_scene_x                     
     00000599  _start_scene_y                     
     0000059B  _start_scene_dir                   
     0000059C  _start_scene                       
     0000059F  _start_player_move_speed           
     000005A0  _start_player_anim_tick            
     000005A1  _ui_fonts                          
     000005A7  _core_reset_hook                   main
     000005AF  _main                              main
     000005B7  _state_start_fns                   
     000005C9  _state_update_fns                  
     000005DB  _hUGE_init_banked                  hUGEDriver_obj
     000005DF  _hUGE_init                         hUGEDriver_obj
     000005EA  _hUGE_mute_channel_banked          hUGEDriver_obj
     000005EE  _hUGE_mute_channel                 hUGEDriver_obj
     000005FB  _hUGE_set_position_banked          hUGEDriver_obj
     000005FF  _hUGE_set_position                 hUGEDriver_obj
     00000608  hUGE_init                          hUGEDriver_obj
     0000065E  hUGE_mute_channel                  hUGEDriver_obj
     00000854  hUGE_set_position                  hUGEDriver_obj
     000009BC  _hUGE_dosound                      hUGEDriver_obj
     000009BC  _hUGE_dosound_banked               hUGEDriver_obj
     000009BC  hUGE_dosound                       hUGEDriver_obj
     00000CAB  _get_vram_byte                     
     00000CB8  _get_win_tile_xy                   
     00000CC0  _get_bkg_tile_xy                   
     00000CE7  _set_sprite_palette                CGB
     00000CEC  _set_bkg_palette                   CGB
     00000CEF  .set_palette                       CGB
     00000D0E  _set_sprite_palette_entry          CGB
     00000D13  _set_bkg_palette_entry             CGB
     00000D16  .set_palette_entry                 CGB
     00000D32  _hide_sprites_range                Metasprites
     00000D62  .sgb_check                         
ASxxxx Linker V03.00 + NoICE + sdld,  page 17.
Hexadecimal  [32-Bits]

Area                                    Addr        Size        Decimal Bytes (Attributes)
--------------------------------        ----        ----        ------- ----- ------------
_CODE                               00000200    00000C51 =        3153. bytes (REL,CON)

      Value  Global                              Global Defined In Module
      -----  --------------------------------   ------------------------
     00000D62  _sgb_check                         
     00000DAA  _sgb_transfer                      
     00000DAF  .sgb_transfer                      
     00000DF0  ___move_metasprite                 Metasprites
     00000E2F  _cpu_slow                          CGB
     00000E4A  _cpu_fast                          CGB

ASxxxx Linker V03.00 + NoICE + sdld,  page 18.
Hexadecimal  [32-Bits]

Area                                    Addr        Size        Decimal Bytes (Attributes)
--------------------------------        ----        ----        ------- ----- ------------
_HEADER0                            00000000    00000001 =           1. bytes (ABS,CON)

      Value  Global                              Global Defined In Module
      -----  --------------------------------   ------------------------
     00000020  .call_hl                           Runtime

ASxxxx Linker V03.00 + NoICE + sdld,  page 19.
Hexadecimal  [32-Bits]

Area                                    Addr        Size        Decimal Bytes (Attributes)
--------------------------------        ----        ----        ------- ----- ------------
_HEADER1                            00000000    00000005 =           5. bytes (ABS,CON)

      Value  Global                              Global Defined In Module
      -----  --------------------------------   ------------------------
     00000028  .MemsetSmall                       Runtime

ASxxxx Linker V03.00 + NoICE + sdld,  page 20.
Hexadecimal  [32-Bits]

Area                                    Addr        Size        Decimal Bytes (Attributes)
--------------------------------        ----        ----        ------- ----- ------------
_HEADER2                            00000000    00000007 =           7. bytes (ABS,CON)

      Value  Global                              Global Defined In Module
      -----  --------------------------------   ------------------------
     00000030  .MemcpySmall                       Runtime

ASxxxx Linker V03.00 + NoICE + sdld,  page 21.
Hexadecimal  [32-Bits]

Area                                    Addr        Size        Decimal Bytes (Attributes)
--------------------------------        ----        ----        ------- ----- ------------
_HEADER3                            00000000    00000008 =           8. bytes (ABS,CON)

      Value  Global                              Global Defined In Module
      -----  --------------------------------   ------------------------
ASxxxx Linker V03.00 + NoICE + sdld,  page 22.
Hexadecimal  [32-Bits]

Area                                    Addr        Size        Decimal Bytes (Attributes)
--------------------------------        ----        ----        ------- ----- ------------
_HEADER4                            00000000    0000004E =          78. bytes (ABS,CON)

      Value  Global                              Global Defined In Module
      -----  --------------------------------   ------------------------
     00000080  .int                               Runtime
     0000008F  _wait_int_handler                  Runtime
     0000009C  __standard_VBL_handler             Runtime
     000000AC  _refresh_OAM                       Runtime

ASxxxx Linker V03.00 + NoICE + sdld,  page 23.
Hexadecimal  [32-Bits]

Area                                    Addr        Size        Decimal Bytes (Attributes)
--------------------------------        ----        ----        ------- ----- ------------
_HEADER5                            00000000    00000002 =           2. bytes (ABS,CON)

      Value  Global                              Global Defined In Module
      -----  --------------------------------   ------------------------
ASxxxx Linker V03.00 + NoICE + sdld,  page 24.
Hexadecimal  [32-Bits]

Area                                    Addr        Size        Decimal Bytes (Attributes)
--------------------------------        ----        ----        ------- ----- ------------
_HEADER6                            00000000    00000030 =          48. bytes (ABS,CON)

      Value  Global                              Global Defined In Module
      -----  --------------------------------   ------------------------
ASxxxx Linker V03.00 + NoICE + sdld,  page 25.
Hexadecimal  [32-Bits]

Area                                    Addr        Size        Decimal Bytes (Attributes)
--------------------------------        ----        ----        ------- ----- ------------
_HEADER7                            00000000    00000006 =           6. bytes (ABS,CON)

      Value  Global                              Global Defined In Module
      -----  --------------------------------   ------------------------
ASxxxx Linker V03.00 + NoICE + sdld,  page 26.
Hexadecimal  [32-Bits]

Area                                    Addr        Size        Decimal Bytes (Attributes)
--------------------------------        ----        ----        ------- ----- ------------
_HEADER8                            00000000    00000003 =           3. bytes (ABS,CON)

      Value  Global                              Global Defined In Module
      -----  --------------------------------   ------------------------
ASxxxx Linker V03.00 + NoICE + sdld,  page 27.
Hexadecimal  [32-Bits]

Area                                    Addr        Size        Decimal Bytes (Attributes)
--------------------------------        ----        ----        ------- ----- ------------
_HEADER9                            00000000    00000001 =           1. bytes (ABS,CON)

      Value  Global                              Global Defined In Module
      -----  --------------------------------   ------------------------
ASxxxx Linker V03.00 + NoICE + sdld,  page 28.
Hexadecimal  [32-Bits]

Area                                    Addr        Size        Decimal Bytes (Attributes)
--------------------------------        ----        ----        ------- ----- ------------
_HEADERa                            00000000    00000001 =           1. bytes (ABS,CON)

      Value  Global                              Global Defined In Module
      -----  --------------------------------   ------------------------
ASxxxx Linker V03.00 + NoICE + sdld,  page 29.
Hexadecimal  [32-Bits]

Area                                    Addr        Size        Decimal Bytes (Attributes)
--------------------------------        ----        ----        ------- ----- ------------
_HEADERb                            00000000    00000001 =           1. bytes (ABS,CON)

      Value  Global                              Global Defined In Module
      -----  --------------------------------   ------------------------
ASxxxx Linker V03.00 + NoICE + sdld,  page 30.
Hexadecimal  [32-Bits]

Area                                    Addr        Size        Decimal Bytes (Attributes)
--------------------------------        ----        ----        ------- ----- ------------
_HEADERc                            00000000    00000002 =           2. bytes (ABS,CON)

      Value  Global                              Global Defined In Module
      -----  --------------------------------   ------------------------
ASxxxx Linker V03.00 + NoICE + sdld,  page 31.
Hexadecimal  [32-Bits]

Area                                    Addr        Size        Decimal Bytes (Attributes)
--------------------------------        ----        ----        ------- ----- ------------
_HEADERd                            00000000    00000001 =           1. bytes (ABS,CON)

      Value  Global                              Global Defined In Module
      -----  --------------------------------   ------------------------
ASxxxx Linker V03.00 + NoICE + sdld,  page 32.
Hexadecimal  [32-Bits]

Area                                    Addr        Size        Decimal Bytes (Attributes)
--------------------------------        ----        ----        ------- ----- ------------
_HEADERe                            00000000    00000001 =           1. bytes (ABS,CON)

      Value  Global                              Global Defined In Module
      -----  --------------------------------   ------------------------
ASxxxx Linker V03.00 + NoICE + sdld,  page 33.
Hexadecimal  [32-Bits]

Area                                    Addr        Size        Decimal Bytes (Attributes)
--------------------------------        ----        ----        ------- ----- ------------
_HEADERf                            00000000    00000002 =           2. bytes (ABS,CON)

      Value  Global                              Global Defined In Module
      -----  --------------------------------   ------------------------
ASxxxx Linker V03.00 + NoICE + sdld,  page 34.
Hexadecimal  [32-Bits]

Area                                    Addr        Size        Decimal Bytes (Attributes)
--------------------------------        ----        ----        ------- ----- ------------
_HEADER10                           00000000    00000082 =         130. bytes (ABS,CON)

      Value  Global                              Global Defined In Module
      -----  --------------------------------   ------------------------
     00000150  .reset                             Runtime
     00000150  _reset                             Runtime
     00000157  .code_start                        Runtime
     000001B7  _exit                              Runtime
     000001BB  _set_interrupts                    Runtime

ASxxxx Linker V03.00 + NoICE + sdld,  page 35.
Hexadecimal  [32-Bits]

Area                                    Addr        Size        Decimal Bytes (Attributes)
--------------------------------        ----        ----        ------- ----- ------------
_HEADER11                           00000000    00000001 =           1. bytes (ABS,CON)

      Value  Global                              Global Defined In Module
      -----  --------------------------------   ------------------------
ASxxxx Linker V03.00 + NoICE + sdld,  page 36.
Hexadecimal  [32-Bits]

Area                                    Addr        Size        Decimal Bytes (Attributes)
--------------------------------        ----        ----        ------- ----- ------------
_HOME                               00000E51    00002C81 =       11393. bytes (REL,CON)

      Value  Global                              Global Defined In Module
      -----  --------------------------------   ------------------------
     00000E51  .memset_simple                     Runtime
     00000E5A  .memcpy_simple                     Runtime
     00000E77  .remove_VBL                        Runtime
     00000E7A  .remove_int                        Runtime
     00000E97  .add_VBL                           Runtime
     00000E9A  .add_int                           Runtime
     00000EA5  .wait_vbl_done                     Runtime
     00000EA5  _wait_vbl_done                     Runtime
     00000EB5  .display_off                       Runtime
     00000EB5  _display_off                       Runtime
     00000ECD  _remove_VBL                        Runtime
     00000ED8  _add_VBL                           Runtime
     00000EE3  _actors_update                     actor
     000012EC  _SetBankedBkgData                  bankdata
     00001308  _SetBankedSpriteData               bankdata
     00001324  _SetBankedBkgTiles                 bankdata
     00001340  _SetBankedWinTiles                 bankdata
     0000135C  _ReadBankedFarPtr                  bankdata
     00001383  _ReadBankedUWORD                   bankdata
     0000139F  _MemcpyBanked                      bankdata
     000013BB  _MemcpyVRAMBanked                  bankdata
     000013D7  _IndexOfFarPtr                     bankdata
     0000146D  _camera_update                     camera
     000015A0  _load_animations                   data_manager
     000015FF  _events_update                     events
     000016D1  _timers_update                     events
     00001759  _input_update                      input
     00001789  .sio_ISR                           
     000017E3  .timer_ISR                         
     000017F8  _simple_LCD_isr                    interrupts
     00001874  _fullscreen_LCD_isr                interrupts
     000018A0  _VBL_isr                           interrupts
     000018EA  _isqrt                             math
     00001940  _sine_wave                         math
     00001A40  _dir_lookup                        math
     00001A48  _dir_angle_lookup                  math
     00001A4C  _hUGETrackerRoutine                music_manager
     00001A78  _music_events_update               music_manager
     00001AFA  _music_play_isr                    music_manager
     00001BA0  _parallax_LCD_isr                  parallax
     00001BDD  _projectiles_update                projectiles
     0000207C  _projectiles_render                projectiles
     000021EF  _scroll_load_pending_row           scroll
     0000227B  _scroll_load_row                   scroll
     000022F5  _scroll_load_col                   scroll
     00002360  _scroll_load_pending_col           scroll
     000023F1  _set_bkg_submap                    
     00002434  _set_xy_win_submap                 
     00002461  .set_xy_win_submap                 
     0000246A  .set_xy_bkg_submap                 
ASxxxx Linker V03.00 + NoICE + sdld,  page 37.
Hexadecimal  [32-Bits]

Area                                    Addr        Size        Decimal Bytes (Attributes)
--------------------------------        ----        ----        ------- ----- ------------
_HOME                               00000E51    00002C81 =       11393. bytes (REL,CON)

      Value  Global                              Global Defined In Module
      -----  --------------------------------   ------------------------
     00002479  .set_xy_submap                     
     000024BF  _sfx_play_isr                      sfx_player
     00002592  _on_SIO_receive                    sio
     000025D3  _SIO_update                        sio
     0000263A  _ui_update                         ui
     00002769  _vm_sgb_transfer                   vm_sgb
     000027B7  _vm_load_text                      vm_ui
     00002A0C  _vm_switch                         vm
     00002B0F  _vm_beginthread                    vm
     00002C34  _vm_rpn                            vm
     00003376  _vm_get_far                        vm
     000033E0  _vm_call_native                    vm
     000033F3  _VM_STEP                           vm
     00003461  _script_runner_update              vm
     000035CC  _fill_win_rect                     
     000035DE  _rand                              
     000035DE  _randw                             
     00003609  _initrand                          
     0000360B  .initrand                          
     00003614  _get_bkg_data                      
     00003614  _get_win_data                      
     00003661  _get_sprite_data                   
     00003691  __mulsuchar                        mul
     0000369B  __muluschar                        mul
     000036A5  __mulschar                         mul
     000036B7  __muluchar                         mul
     000036C3  __mulint                           mul
     000036E9  _abs                               abs
     000036F8  _set_win_tiles                     
     0000370C  _set_tile_data                     
     00003711  _set_bkg_data                      
     00003711  _set_win_data                      
     00003719  _set_sprite_data                   
     00003749  _reverse                           reverse
     0000377D  ___call__banked                    far_ptr
     0000379A  _to_far_ptr                        far_ptr
     000037D3  _add_LCD                           
     000037DE  .add_LCD                           
     000037E4  _remove_LCD                        
     000037EF  .remove_LCD                        
     000037F5  .fill_rect_wtt                     
     000037FE  .fill_rect_btt                     
     0000384B  .copy_vram                         
     0000385F  _get_data                          
     0000385F  _set_data                          
     0000385F  _vmemcpy                           
     00003872  _fill_bkg_rect                     
     00003884  .padup                             
     00003884  _waitpadup                         
     00003894  .jpad                              
     00003894  _joypad                            
ASxxxx Linker V03.00 + NoICE + sdld,  page 38.
Hexadecimal  [32-Bits]

Area                                    Addr        Size        Decimal Bytes (Attributes)
--------------------------------        ----        ----        ------- ----- ------------
_HOME                               00000E51    00002C81 =       11393. bytes (REL,CON)

      Value  Global                              Global Defined In Module
      -----  --------------------------------   ------------------------
     000038BC  _waitpad                           
     000038BF  .wait_pad                          
     000038C6  ___sdcc_call_hl                    call_hl
     000038C7  ___memcpy                          memcpy
     000038C7  _memcpy                            memcpy
     0000390A  _memset                            memset
     0000393D  .set_xy_wtt                        SetTileMap
     00003946  .set_xy_btt                        SetTileMap
     00003955  .set_xy_tt                         SetTileMap
     00003997  __divsuchar                        div
     000039A4  __modsuchar                        div
     000039AE  __divuschar                        div
     000039C0  __moduschar                        div
     000039D0  __divschar                         div
     000039DC  __modschar                         div
     000039E6  __divsint                          div
     000039F7  __modsint                          div
     00003A06  __divuchar                         div
     00003A12  __moduchar                         div
     00003A1C  __divuint                          div
     00003A2D  __moduint                          div
     00003A3C  .div8                              div
     00003A3C  .mod8                              div
     00003A44  .div16                             div
     00003A44  .mod16                             div
     00003A7A  .divu8                             div
     00003A7A  .modu8                             div
     00003A7D  .divu16                            div
     00003A7D  .modu16                            div
     00003ABE  _set_bkg_tiles                     

ASxxxx Linker V03.00 + NoICE + sdld,  page 39.
Hexadecimal  [32-Bits]

Area                                    Addr        Size        Decimal Bytes (Attributes)
--------------------------------        ----        ----        ------- ----- ------------
_INITIALIZER                        00003AD2    00000019 =          25. bytes (REL,CON)

      Value  Global                              Global Defined In Module
      -----  --------------------------------   ------------------------
ASxxxx Linker V03.00 + NoICE + sdld,  page 40.
Hexadecimal  [32-Bits]

Area                                    Addr        Size        Decimal Bytes (Attributes)
--------------------------------        ----        ----        ------- ----- ------------
_GSINIT                             00003AEB    00000027 =          39. bytes (REL,CON)

      Value  Global                              Global Defined In Module
      -----  --------------------------------   ------------------------
     00003AEB  gsinit                             Runtime

ASxxxx Linker V03.00 + NoICE + sdld,  page 41.
Hexadecimal  [32-Bits]

Area                                    Addr        Size        Decimal Bytes (Attributes)
--------------------------------        ----        ----        ------- ----- ------------
_GSFINAL                            00003B12    00000001 =           1. bytes (REL,CON)

      Value  Global                              Global Defined In Module
      -----  --------------------------------   ------------------------
ASxxxx Linker V03.00 + NoICE + sdld,  page 42.
Hexadecimal  [32-Bits]

Area                                    Addr        Size        Decimal Bytes (Attributes)
--------------------------------        ----        ----        ------- ----- ------------
_DATA                               0000C0A0    0000197F =        6527. bytes (REL,CON)

      Value  Global                              Global Defined In Module
      -----  --------------------------------   ------------------------
     0000C0A0  __cpu                              Runtime
     0000C0A1  __is_GBA                           Runtime
     0000C0A2  .mode                              Runtime
     0000C0A3  .sys_time                          Runtime
     0000C0A3  _sys_time                          Runtime
     0000C0A5  .int_0x40                          Runtime
     0000C0B9  _actors                            actor
     0000C4FD  _actors_active_head                actor
     0000C4FF  _actors_active_tail                actor
     0000C501  _actors_inactive_head              actor
     0000C503  _screen_x                          actor
     0000C504  _screen_y                          actor
     0000C505  _invalid                           actor
     0000C507  _player_moving                     actor
     0000C508  _player_iframes                    actor
     0000C509  _player_collision_actor            actor
     0000C50B  _emote_actor                       actor
     0000C50D  _emote_timer                       actor
     0000C50E  _allocated_hardware_sprites        actor
     0000C51A  _camera_x                          camera
     0000C51C  _camera_y                          camera
     0000C51E  _camera_offset_x                   camera
     0000C51F  _camera_offset_y                   camera
     0000C520  _camera_deadzone_x                 camera
     0000C521  _camera_deadzone_y                 camera
     0000C522  _camera_settings                   camera
     0000C526  _current_scene                     data_manager
     0000C529  _image_bank                        data_manager
     0000C52A  _image_ptr                         data_manager
     0000C52C  _image_attr_bank                   data_manager
     0000C52D  _image_attr_ptr                    data_manager
     0000C52F  _collision_bank                    data_manager
     0000C530  _collision_ptr                     data_manager
     0000C532  _image_tile_width                  data_manager
     0000C533  _image_tile_height                 data_manager
     0000C534  _image_width                       data_manager
     0000C536  _image_height                      data_manager
     0000C538  _sprites_len                       data_manager
     0000C539  _actors_len                        data_manager
     0000C53A  _projectiles_len                   data_manager
     0000C53B  _player_sprite_len                 data_manager
     0000C53C  _scene_type                        data_manager
     0000C53D  _scene_LCD_type                    data_manager
     0000C53E  _scene_stack                       data_manager
     0000C57E  _scene_stack_ptr                   data_manager
     0000C580  _scene_sprites_base_tiles          data_manager
     0000C5C0  _input_events                      events
     0000C5E8  _input_slots                       events
     0000C5F0  _timer_events                      events
     0000C604  _timer_values                      events
ASxxxx Linker V03.00 + NoICE + sdld,  page 43.
Hexadecimal  [32-Bits]

Area                                    Addr        Size        Decimal Bytes (Attributes)
--------------------------------        ----        ----        ------- ----- ------------
_DATA                               0000C0A0    0000197F =        6527. bytes (REL,CON)

      Value  Global                              Global Defined In Module
      -----  --------------------------------   ------------------------
     0000C60C  _fade_running                      fade_manager
     0000C60D  _fade_frames_per_step              fade_manager
     0000C60E  _fade_timer                        fade_manager
     0000C616  _joypads                           input
     0000C61B  _frame_joy                         input
     0000C61C  _last_joy                          input
     0000C61D  _recent_joy                        input
     0000C61E  _SIO_status                        
     0000C61F  _link_byte_sent                    
     0000C620  _link_next_mode                    
     0000C621  _save_blob_size                    load_save
     0000C623  _routine_queue                     music_manager
     0000C627  _routine_queue_head                music_manager
     0000C628  _routine_queue_tail                music_manager
     0000C629  _music_events                      music_manager
     0000C63D  _music_current_track_bank          music_manager
     0000C63E  _music_mute_flag                   music_manager
     0000C63F  _music_mute_mask                   music_manager
     0000C640  _music_next_track                  music_manager
     0000C642  _music_current_track               music_manager
     0000C644  _music_play_isr_counter            music_manager
     0000C645  _music_play_isr_pause              music_manager
     0000C646  _music_global_mute_mask            music_manager
     0000C647  _music_sfx_priority                music_manager
     0000C648  _DMG_palette                       palette
     0000C64B  _SprPalette                        palette
     0000C68B  _parallax_rows                     parallax
     0000C69D  _parallax_row                      parallax
     0000C69F  _projectiles                       projectiles
     0000C758  _projectile_defs                   projectiles
     0000C7CB  _projectiles_active_head           projectiles
     0000C7CD  _projectiles_inactive_head         projectiles
     0000C7D4  _scroll_x                          scroll
     0000C7D6  _scroll_y                          scroll
     0000C7D8  _draw_scroll_x                     scroll
     0000C7DA  _draw_scroll_y                     scroll
     0000C7DC  _scroll_x_max                      scroll
     0000C7DE  _scroll_y_max                      scroll
     0000C7E0  _scroll_offset_x                   scroll
     0000C7E1  _scroll_offset_y                   scroll
     0000C7E2  _pending_h_x                       scroll
     0000C7E3  _pending_h_y                       scroll
     0000C7E4  _pending_h_i                       scroll
     0000C7E5  _pending_w_x                       scroll
     0000C7E6  _pending_w_y                       scroll
     0000C7E7  _pending_w_i                       scroll
     0000C7E8  _current_row                       scroll
     0000C7EA  _new_row                           scroll
     0000C7EC  _current_col                       scroll
     0000C7EE  _new_col                           scroll
     0000C7F0  .image_tile_width                  
ASxxxx Linker V03.00 + NoICE + sdld,  page 44.
Hexadecimal  [32-Bits]

Area                                    Addr        Size        Decimal Bytes (Attributes)
--------------------------------        ----        ----        ------- ----- ------------
_DATA                               0000C0A0    0000197F =        6527. bytes (REL,CON)

      Value  Global                              Global Defined In Module
      -----  --------------------------------   ------------------------
     0000C7F1  _sfx_play_bank                     sfx_player
     0000C7F2  _sfx_play_sample                   sfx_player
     0000C7F4  _sfx_frame_skip                    sfx_player
     0000C7F5  _link_operation_mode               sio
     0000C7F6  _link_packet                       sio
     0000C816  _link_packet_len                   sio
     0000C817  _link_packet_ptr                   sio
     0000C819  _link_packet_received              sio
     0000C81A  _link_packet_snd_len               sio
     0000C81B  _link_packet_snd_ptr               sio
     0000C81D  _link_packet_sent                  sio
     0000C81E  __is_CGB                           system
     0000C81F  __is_SGB                           system
     0000C820  __current_ram_bank                 system
     0000C821  _triggers                          trigger
     0000C919  _last_trigger_tx                   trigger
     0000C91A  _last_trigger_ty                   trigger
     0000C91B  _last_trigger                      trigger
     0000C91C  _win_pos_x                         ui
     0000C91D  _win_dest_pos_x                    ui
     0000C91E  _win_pos_y                         ui
     0000C91F  _win_dest_pos_y                    ui
     0000C920  _win_speed                         ui
     0000C921  _text_drawn                        ui
     0000C922  _current_text_speed                ui
     0000C923  _text_wait                         ui
     0000C924  _text_options                      ui
     0000C925  _text_in_speed                     ui
     0000C926  _text_out_speed                    ui
     0000C927  _text_draw_speed                   ui
     0000C928  _text_ff_joypad                    ui
     0000C929  _text_ff                           ui
     0000C92A  _text_bkg_fill                     ui
     0000C92B  _ui_text_data                      ui
     0000CA35  _vwf_current_mask                  ui
     0000CA36  _vwf_current_rotate                ui
     0000CA37  _vwf_inverse_map                   ui
     0000CA38  _vwf_direction                     ui
     0000CA39  _vwf_current_font_desc             ui
     0000CA41  _vwf_current_font_bank             ui
     0000CA42  _vwf_current_font_idx              ui
     0000CA43  _text_render_base_addr             ui
     0000CA45  _text_scroll_addr                  ui
     0000CA47  _text_scroll_width                 ui
     0000CA48  _text_scroll_height                ui
     0000CA49  _text_scroll_fill                  ui
     0000CA4A  _text_sound_mask                   ui
     0000CA4B  _text_sound_bank                   ui
     0000CA4C  _text_sound_data                   ui
     0000CA4E  _overlay_priority                  ui
     0000CA55  __itoa_fmt_len                     vm_ui_a
ASxxxx Linker V03.00 + NoICE + sdld,  page 45.
Hexadecimal  [32-Bits]

Area                                    Addr        Size        Decimal Bytes (Attributes)
--------------------------------        ----        ----        ------- ----- ------------
_DATA                               0000C0A0    0000197F =        6527. bytes (REL,CON)

      Value  Global                              Global Defined In Module
      -----  --------------------------------   ------------------------
     0000CA56  .itoa_fmt_buf                      vm_ui_a
     0000CA59  _CTXS                              vm
     0000CB89  _first_ctx                         vm
     0000CB8B  _free_ctxs                         vm
     0000CB8D  _old_executing_ctx                 vm
     0000CB8F  _executing_ctx                     vm
     0000CB91  _vm_lock_state                     vm
     0000CB92  _vm_loaded_state                   vm
     0000CB93  _vm_exception_code                 vm
     0000CB94  _vm_exception_params_length        vm
     0000CB95  _vm_exception_params_bank          vm
     0000CB96  _vm_exception_params_offset        vm
     0000CB99  _script_memory                     vm
     0000D99F  _grounded                          platform
     0000D9A0  _on_ladder                         platform
     0000D9A1  _pl_vel_x                          platform
     0000D9A3  _pl_vel_y                          platform
     0000D9A5  _plat_min_vel                      platform
     0000D9A7  _plat_walk_vel                     platform
     0000D9A9  _plat_climb_vel                    platform
     0000D9AB  _plat_run_vel                      platform
     0000D9AD  _plat_walk_acc                     platform
     0000D9AF  _plat_run_acc                      platform
     0000D9B1  _plat_dec                          platform
     0000D9B3  _plat_jump_vel                     platform
     0000D9B5  _plat_grav                         platform
     0000D9B7  _plat_hold_grav                    platform
     0000D9B9  _plat_max_fall_vel                 platform
     0000D9BB  _shooter_reached_end               shmup
     0000D9BC  _shooter_dest                      shmup
     0000D9BE  _shooter_direction                 shmup
     0000D9BF  _topdown_grid                      topdown
     0000D9C0  ___rand_seed                       
     0000D9DE  _hUGE_current_wave                 hUGEDriver_obj
     0000D9DE  hUGE_current_wave                  hUGEDriver_obj
     0000D9DF  _hUGE_mute_mask                    hUGEDriver_obj
     0000DA08  ___call_banked_addr                far_ptr
     0000DA08  ___call_banked_ptr                 far_ptr
     0000DA0A  ___call_banked_bank                far_ptr
     0000DA0C  .int_0x48                          
     0000DA1C  ___current_metasprite              Metasprites
     0000DA1E  ___current_base_tile               Metasprites

ASxxxx Linker V03.00 + NoICE + sdld,  page 46.
Hexadecimal  [32-Bits]

Area                                    Addr        Size        Decimal Bytes (Attributes)
--------------------------------        ----        ----        ------- ----- ------------
_INITIALIZED                        0000DA1F    00000019 =          25. bytes (REL,CON)

      Value  Global                              Global Defined In Module
      -----  --------------------------------   ------------------------
     0000DA1F  _fade_style                        fade_manager
     0000DA20  _game_time                         game_time
     0000DA21  _PRN_PKT_START                     gbprinter
     0000DA2F  _hide_sprites                      interrupts
     0000DA30  _show_actors_on_overlay            interrupts
     0000DA31  _overlay_cut_scanline              interrupts
     0000DA32  _triggers_len                      trigger
     0000DA33  _exchange_state                    vm_sio
     0000DA34  _last_hit_trigger                  pointnclick
     0000DA35  _shooter_scroll_speed              shmup
     0000DA36  ___render_shadow_OAM               Metasprites
     0000DA37  __map_tile_offset                  SetTileMap
ASxxxx Linker V03.00 + NoICE + sdld,  page 47.
Hexadecimal  [32-Bits]

Area                                    Addr        Size        Decimal Bytes (Attributes)
--------------------------------        ----        ----        ------- ----- ------------
_HRAM12                             00000000    00000003 =           3. bytes (ABS,CON)

      Value  Global                              Global Defined In Module
      -----  --------------------------------   ------------------------
     0000FF90  __current_bank                     Runtime
     0000FF92  __shadow_OAM_base                  Runtime

ASxxxx Linker V03.00 + NoICE + sdld,  page 48.
Hexadecimal  [32-Bits]

Area                                    Addr        Size        Decimal Bytes (Attributes)
--------------------------------        ----        ----        ------- ----- ------------
_EHL_TRAMPOLINE0                    00000000    00000011 =          17. bytes (ABS,CON)

      Value  Global                              Global Defined In Module
      -----  --------------------------------   ------------------------
     00000008  ___sdcc_bcall_ehl                  

ASxxxx Linker V03.00 + NoICE + sdld,  page 49.
Hexadecimal  [32-Bits]

Area                                    Addr        Size        Decimal Bytes (Attributes)
--------------------------------        ----        ----        ------- ----- ------------
_CODE_3                             00034000    00004000 =       16384. bytes (REL,CON)

      Value  Global                              Global Defined In Module
      -----  --------------------------------   ------------------------
     00034000  ___func_ACTOR                      actor
     00034000  _actors_init                       actor
     0003403A  _emote_offsets                     actor
     00034049  _emote_metasprite                  actor
     00034055  _player_init                       actor
     0003406A  _deactivate_actor                  actor
     000341DB  _activate_actor                    actor
     0003431A  _activate_actors_in_row            actor
     00034411  _activate_actors_in_col            actor
     00034562  _actor_set_frames                  actor
     000345B6  _actor_set_frame_offset            actor
     000345F3  _actor_get_frame_offset            actor
     00034606  _actor_set_anim_idle               actor
     00034634  _actor_set_anim_moving             actor
     00034665  _actor_set_dir                     actor
     000346CA  _actor_at_tile                     actor
     000347A0  _actor_in_front_of_player          actor
     00034887  _actor_overlapping_player          actor
     00034B20  _actor_overlapping_bb              actor
     00034D3F  _actors_handle_player_collision    actor
     00034DCA  _check_collision_in_direction      actor
     000355BA  ___func_VM_ACTOR                   vm_actor
     000355BA  _vm_actor_move_to                  vm_actor
     00035F57  _vm_actor_move_cancel              vm_actor
     00035F8D  _vm_actor_activate                 vm_actor
     00035FDF  _vm_actor_deactivate               vm_actor
     00036030  _vm_actor_terminate_update         vm_actor
     00036077  _vm_actor_set_dir                  vm_actor
     000360C0  _vm_actor_set_anim                 vm_actor
     0003614D  _vm_actor_set_pos                  vm_actor
     000361C7  _vm_actor_get_pos                  vm_actor
     00036236  _vm_actor_get_dir                  vm_actor
     000362B0  _vm_actor_get_angle                vm_actor
     00036331  _vm_actor_emote                    vm_actor
     000363F5  _vm_actor_set_bounds               vm_actor
     00036453  _vm_actor_set_spritesheet          vm_actor
     00036522  _vm_actor_replace_tile             vm_actor
     0003658C  _vm_actor_set_anim_tick            vm_actor
     000365CA  _vm_actor_set_move_speed           vm_actor
     00036608  _vm_actor_set_anim_frame           vm_actor
     0003664C  _vm_actor_get_anim_frame           vm_actor
     00036695  _vm_actor_set_anim_set             vm_actor
     00036722  _vm_actor_set_spritesheet_by_ref   vm_actor
     00036830  _vm_actor_set_flags                vm_actor
     000368DE  ___func_VM_SIO                     vm_sio
     000368DE  _vm_sio_set_mode                   vm_sio
     000368F1  _vm_sio_exchange                   vm_sio
     00036C4A  ___func_bg_game_over_tileset       bg_game_over_tileset
     00036C4A  _bg_game_over_tileset              bg_game_over_tileset
     00036C5C  ___func_scene_1_sprites            scene_1_sprites
ASxxxx Linker V03.00 + NoICE + sdld,  page 50.
Hexadecimal  [32-Bits]

Area                                    Addr        Size        Decimal Bytes (Attributes)
--------------------------------        ----        ----        ------- ----- ------------
_CODE_3                             00034000    00004000 =       16384. bytes (REL,CON)

      Value  Global                              Global Defined In Module
      -----  --------------------------------   ------------------------
     00036C5C  _scene_1_sprites                   scene_1_sprites
     00036C5F  _scene_12_init                     scene_12_init

ASxxxx Linker V03.00 + NoICE + sdld,  page 51.
Hexadecimal  [32-Bits]

Area                                    Addr        Size        Decimal Bytes (Attributes)
--------------------------------        ----        ----        ------- ----- ------------
_CODE_8                             00084000    00003FFE =       16382. bytes (REL,CON)

      Value  Global                              Global Defined In Module
      -----  --------------------------------   ------------------------
     00084000  _bootstrap_script                  
     0008400B  ___func_VM_UI                      vm_ui
     0008400B  _vm_display_text                   vm_ui
     00084079  _vm_switch_text_layer              vm_ui
     00084093  _vm_overlay_setpos                 vm_ui
     000840AD  _vm_overlay_wait                   vm_ui
     0008413E  _vm_overlay_move_to                vm_ui
     00084182  _vm_overlay_set_scroll             vm_ui
     000841BF  _vm_overlay_clear                  vm_ui
     00084298  _vm_overlay_show                   vm_ui
     000842E6  _vm_choice                         vm_ui
     00084401  _vm_set_font                       vm_ui
     00084432  _vm_overlay_scroll                 vm_ui
     00084492  _vm_overlay_set_submap             vm_ui
     00084502  _vm_overlay_set_submap_ex          vm_ui
     00084605  _vm_overlay_set_map                vm_ui
     00084769  _vm_set_text_sound                 vm_ui
     00084782  ___func_bg_cave_tilemap_attr       bg_cave_tilemap_attr
     00084782  _bg_cave_tilemap_attr              bg_cave_tilemap_attr
     00084EBC  ___func_bg_cave_tilemap            bg_cave_tilemap
     00084EBC  _bg_cave_tilemap                   bg_cave_tilemap
     000855F6  ___func_bg_ending_1_tileset        bg_ending_1_tileset
     000855F6  _bg_ending_1_tileset               bg_ending_1_tileset
     00085E78  ___func_bg_ending_3_tileset        bg_ending_3_tileset
     00085E78  _bg_ending_3_tileset               bg_ending_3_tileset
     0008661A  ___func_bg_ending_5b_tileset       bg_ending_5b_tileset
     0008661A  _bg_ending_5b_tileset              bg_ending_5b_tileset
     00086EFC  ___func_scene_0_collisions         scene_0_collisions
     00086EFC  _scene_0_collisions                scene_0_collisions
     00087636  _script_input_4                    script_input_4
     000876FC  ___func_sprite_3d_rabbit_tileset   sprite_3d_rabbit_tileset
     000876FC  _sprite_3d_rabbit_tileset          sprite_3d_rabbit_tileset

ASxxxx Linker V03.00 + NoICE + sdld,  page 52.
Hexadecimal  [32-Bits]

Area                                    Addr        Size        Decimal Bytes (Attributes)
--------------------------------        ----        ----        ------- ----- ------------
_CODE_14                            000E4000    000018C0 =        6336. bytes (REL,CON)

      Value  Global                              Global Defined In Module
      -----  --------------------------------   ------------------------
     000E4000  _camera_init                       camera
     000E401E  _camera_reset                      camera
     000E402E  _input_init                        input
     000E4054  _remove_LCD_ISRs                   interrupts
     000E4075  _palette_init                      palette
     000E40AE  _CGBZeroPalette                    palette
     000E40C3  _parallax_init                     parallax
     000E40E7  _scroll_rect                       
     000E4124  _actor_0_update                    actor_0_update
     000E4141  _actor_1_update                    actor_1_update
     000E415E  _actor_2_update                    actor_2_update
     000E417B  _actor_20_interact                 actor_20_interact
     000E41A1  _actor_23_update                   actor_23_update
     000E41BE  _actor_24_interact                 actor_24_interact
     000E422A  _actor_3_interact                  actor_3_interact
     000E4256  _actor_4_interact                  actor_4_interact
     000E4282  _actor_5_interact                  actor_5_interact
     000E42AE  _actor_7_update                    actor_7_update
     000E431B  _actor_8_interact                  actor_8_interact
     000E4380  ___func_bg_3d_hermano              bg_3d_hermano
     000E4380  _bg_3d_hermano                     bg_3d_hermano
     000E438E  ___func_bg_3d_hermano2             bg_3d_hermano2
     000E438E  _bg_3d_hermano2                    bg_3d_hermano2
     000E439C  ___func_bg_3d_pig                  bg_3d_pig
     000E439C  _bg_3d_pig                         bg_3d_pig
     000E43AA  ___func_bg_3d_rabbit               bg_3d_rabbit
     000E43AA  _bg_3d_rabbit                      bg_3d_rabbit
     000E43B8  ___func_bg_3d_warangka             bg_3d_warangka
     000E43B8  _bg_3d_warangka                    bg_3d_warangka
     000E43C6  ___func_bg_3d_waraya               bg_3d_waraya
     000E43C6  _bg_3d_waraya                      bg_3d_waraya
     000E43D4  ___func_bg_cave                    bg_cave
     000E43D4  _bg_cave                           bg_cave
     000E43E2  ___func_bg_credits                 bg_credits
     000E43E2  _bg_credits                        bg_credits
     000E43F0  ___func_bg_ending_1                bg_ending_1
     000E43F0  _bg_ending_1                       bg_ending_1
     000E43FE  ___func_bg_ending_2a               bg_ending_2a
     000E43FE  _bg_ending_2a                      bg_ending_2a
     000E440C  ___func_bg_ending_2b               bg_ending_2b
     000E440C  _bg_ending_2b                      bg_ending_2b
     000E441A  ___func_bg_ending_3                bg_ending_3
     000E441A  _bg_ending_3                       bg_ending_3
     000E4428  ___func_bg_ending_4a               bg_ending_4a
     000E4428  _bg_ending_4a                      bg_ending_4a
     000E4436  ___func_bg_ending_4b               bg_ending_4b
     000E4436  _bg_ending_4b                      bg_ending_4b
     000E4444  ___func_bg_ending_5a               bg_ending_5a
     000E4444  _bg_ending_5a                      bg_ending_5a
     000E4452  ___func_bg_ending_5b               bg_ending_5b
ASxxxx Linker V03.00 + NoICE + sdld,  page 53.
Hexadecimal  [32-Bits]

Area                                    Addr        Size        Decimal Bytes (Attributes)
--------------------------------        ----        ----        ------- ----- ------------
_CODE_14                            000E4000    000018C0 =        6336. bytes (REL,CON)

      Value  Global                              Global Defined In Module
      -----  --------------------------------   ------------------------
     000E4452  _bg_ending_5b                      bg_ending_5b
     000E4460  ___func_bg_ending_6                bg_ending_6
     000E4460  _bg_ending_6                       bg_ending_6
     000E446E  ___func_bg_game_over               bg_game_over
     000E446E  _bg_game_over                      bg_game_over
     000E447C  ___func_bg_outside                 bg_outside
     000E447C  _bg_outside                        bg_outside
     000E448A  ___func_emote_question             emote_question
     000E448A  _emote_question                    emote_question
     000E44CA  ___func_emote_shock                emote_shock
     000E44CA  _emote_shock                       emote_shock
     000E450A  ___func_palette_1                  palette_1
     000E450A  _palette_1                         palette_1
     000E454D  ___func_palette_10                 palette_10
     000E454D  _palette_10                        palette_10
     000E4590  ___func_palette_11                 palette_11
     000E4590  _palette_11                        palette_11
     000E45D3  ___func_palette_12                 palette_12
     000E45D3  _palette_12                        palette_12
     000E4616  ___func_palette_13                 palette_13
     000E4616  _palette_13                        palette_13
     000E4659  ___func_palette_14                 palette_14
     000E4659  _palette_14                        palette_14
     000E469C  ___func_palette_15                 palette_15
     000E469C  _palette_15                        palette_15
     000E46DF  ___func_palette_16                 palette_16
     000E46DF  _palette_16                        palette_16
     000E4722  ___func_palette_17                 palette_17
     000E4722  _palette_17                        palette_17
     000E4765  ___func_palette_18                 palette_18
     000E4765  _palette_18                        palette_18
     000E47A8  ___func_palette_19                 palette_19
     000E47A8  _palette_19                        palette_19
     000E47EB  ___func_palette_2                  palette_2
     000E47EB  _palette_2                         palette_2
     000E482E  ___func_palette_20                 palette_20
     000E482E  _palette_20                        palette_20
     000E4871  ___func_palette_21                 palette_21
     000E4871  _palette_21                        palette_21
     000E48B4  ___func_palette_22                 palette_22
     000E48B4  _palette_22                        palette_22
     000E48F7  ___func_palette_23                 palette_23
     000E48F7  _palette_23                        palette_23
     000E493A  ___func_palette_24                 palette_24
     000E493A  _palette_24                        palette_24
     000E497D  ___func_palette_25                 palette_25
     000E497D  _palette_25                        palette_25
     000E49C0  ___func_palette_26                 palette_26
     000E49C0  _palette_26                        palette_26
     000E4A03  ___func_palette_3                  palette_3
     000E4A03  _palette_3                         palette_3
ASxxxx Linker V03.00 + NoICE + sdld,  page 54.
Hexadecimal  [32-Bits]

Area                                    Addr        Size        Decimal Bytes (Attributes)
--------------------------------        ----        ----        ------- ----- ------------
_CODE_14                            000E4000    000018C0 =        6336. bytes (REL,CON)

      Value  Global                              Global Defined In Module
      -----  --------------------------------   ------------------------
     000E4A46  ___func_palette_4                  palette_4
     000E4A46  _palette_4                         palette_4
     000E4A89  ___func_palette_5                  palette_5
     000E4A89  _palette_5                         palette_5
     000E4ACC  ___func_palette_6                  palette_6
     000E4ACC  _palette_6                         palette_6
     000E4B0F  ___func_palette_7                  palette_7
     000E4B0F  _palette_7                         palette_7
     000E4B52  ___func_palette_8                  palette_8
     000E4B52  _palette_8                         palette_8
     000E4B95  ___func_palette_9                  palette_9
     000E4B95  _palette_9                         palette_9
     000E4BD8  ___func_scene_0_actors             scene_0_actors
     000E4BD8  _scene_0_actors                    scene_0_actors
     000E4C40  _scene_0_init                      scene_0_init
     000E4C9D  ___func_scene_0_triggers           scene_0_triggers
     000E4C9D  _scene_0_triggers                  scene_0_triggers
     000E4CC5  ___func_scene_0                    scene_0
     000E4CC5  _scene_0                           scene_0
     000E4D00  ___func_scene_1_actors             scene_1_actors
     000E4D00  _scene_1_actors                    scene_1_actors
     000E4D34  ___func_scene_1                    scene_1
     000E4D34  _scene_1                           scene_1
     000E4D6F  ___func_scene_10_actors            scene_10_actors
     000E4D6F  _scene_10_actors                   scene_10_actors
     000E4DA3  ___func_scene_10                   scene_10
     000E4DA3  _scene_10                          scene_10
     000E4DDE  ___func_scene_11_actors            scene_11_actors
     000E4DDE  _scene_11_actors                   scene_11_actors
     000E4E12  ___func_scene_11                   scene_11
     000E4E12  _scene_11                          scene_11
     000E4E4D  ___func_scene_12_actors            scene_12_actors
     000E4E4D  _scene_12_actors                   scene_12_actors
     000E4E81  ___func_scene_12                   scene_12
     000E4E81  _scene_12                          scene_12
     000E4EBC  ___func_scene_13_actors            scene_13_actors
     000E4EBC  _scene_13_actors                   scene_13_actors
     000E4F24  ___func_scene_13                   scene_13
     000E4F24  _scene_13                          scene_13
     000E4F5F  ___func_scene_14                   scene_14
     000E4F5F  _scene_14                          scene_14
     000E4F9A  ___func_scene_16                   scene_16
     000E4F9A  _scene_16                          scene_16
     000E4FD5  ___func_scene_17                   scene_17
     000E4FD5  _scene_17                          scene_17
     000E5010  ___func_scene_18                   scene_18
     000E5010  _scene_18                          scene_18
     000E504B  ___func_scene_19                   scene_19
     000E504B  _scene_19                          scene_19
     000E5086  ___func_scene_2                    scene_2
     000E5086  _scene_2                           scene_2
ASxxxx Linker V03.00 + NoICE + sdld,  page 55.
Hexadecimal  [32-Bits]

Area                                    Addr        Size        Decimal Bytes (Attributes)
--------------------------------        ----        ----        ------- ----- ------------
_CODE_14                            000E4000    000018C0 =        6336. bytes (REL,CON)

      Value  Global                              Global Defined In Module
      -----  --------------------------------   ------------------------
     000E50C1  ___func_scene_20                   scene_20
     000E50C1  _scene_20                          scene_20
     000E50FC  ___func_scene_21                   scene_21
     000E50FC  _scene_21                          scene_21
     000E5137  ___func_scene_22                   scene_22
     000E5137  _scene_22                          scene_22
     000E5172  ___func_scene_23                   scene_23
     000E5172  _scene_23                          scene_23
     000E51AD  ___func_scene_24                   scene_24
     000E51AD  _scene_24                          scene_24
     000E51E8  ___func_scene_3                    scene_3
     000E51E8  _scene_3                           scene_3
     000E5223  ___func_scene_4                    scene_4
     000E5223  _scene_4                           scene_4
     000E525E  ___func_scene_5                    scene_5
     000E525E  _scene_5                           scene_5
     000E5299  ___func_scene_9                    scene_9
     000E5299  _scene_9                           scene_9
     000E52D4  ___func_scene_outside_triggers     scene_outside_triggers
     000E52D4  _scene_outside_triggers            scene_outside_triggers
     000E52F4  ___func_scene_outside              scene_outside
     000E52F4  _scene_outside                     scene_outside
     000E532F  ___func_scene_title_screen         scene_title_screen
     000E532F  _scene_title_screen                scene_title_screen
     000E536A  _script_14                         script_14
     000E53A9  _script_25                         script_25
     000E53E2  _script_29                         script_29
     000E53F4  _script_input_10                   script_input_10
     000E5415  _script_input_11                   script_input_11
     000E5426  _script_input_12                   script_input_12
     000E545C  _script_input_13                   script_input_13
     000E546A  _script_input_2                    script_input_2
     000E54BB  _script_input_3                    script_input_3
     000E54EB  _script_input_6                    script_input_6
     000E5544  _script_input_7                    script_input_7
     000E5582  _script_input_9                    script_input_9
     000E55B2  ___func_sound_cat_meow_vgm         sound_cat_meow_vgm
     000E55B2  _sound_cat_meow_vgm                sound_cat_meow_vgm
     000E560A  ___func_sound_click_vgm            sound_click_vgm
     000E560A  _sound_click_vgm                   sound_click_vgm
     000E5628  ___func_sound_hurt_vgm             sound_hurt_vgm
     000E5628  _sound_hurt_vgm                    sound_hurt_vgm
     000E5668  ___func_sound_jump_vgm             sound_jump_vgm
     000E5668  _sound_jump_vgm                    sound_jump_vgm
     000E56D1  ___func_sprite_adult_tiger_0_til   sprite_adult_tiger_0_tileset
     000E56D1  _sprite_adult_tiger_0_tileset      sprite_adult_tiger_0_tileset
     000E56D4  ___func_sprite_adult_tiger_0       sprite_adult_tiger_0
     000E56D4  _sprite_adult_tiger_0_metasprite   sprite_adult_tiger_0
     000E56D8  _sprite_adult_tiger_0_metasprite   sprite_adult_tiger_0
     000E56DA  _sprite_adult_tiger_0_animations   sprite_adult_tiger_0
     000E56EA  _sprite_adult_tiger_0_animations   sprite_adult_tiger_0
ASxxxx Linker V03.00 + NoICE + sdld,  page 56.
Hexadecimal  [32-Bits]

Area                                    Addr        Size        Decimal Bytes (Attributes)
--------------------------------        ----        ----        ------- ----- ------------
_CODE_14                            000E4000    000018C0 =        6336. bytes (REL,CON)

      Value  Global                              Global Defined In Module
      -----  --------------------------------   ------------------------
     000E56EC  _sprite_adult_tiger_0              sprite_adult_tiger_0
     000E56FF  ___func_sprite_big_rock_tileset    sprite_big_rock_tileset
     000E56FF  _sprite_big_rock_tileset           sprite_big_rock_tileset
     000E5741  ___func_sprite_big_rock            sprite_big_rock
     000E5741  _sprite_big_rock_metasprite_0      sprite_big_rock
     000E574D  _sprite_big_rock_metasprites       sprite_big_rock
     000E574F  _sprite_big_rock_animations        sprite_big_rock
     000E575F  _sprite_big_rock_animations_look   sprite_big_rock
     000E5761  _sprite_big_rock                   sprite_big_rock
     000E5774  ___func_sprite_cat                 sprite_cat
     000E5774  _sprite_cat_metasprite_0           sprite_cat
     000E5778  _sprite_cat_metasprites            sprite_cat
     000E577A  _sprite_cat_animations             sprite_cat
     000E578A  _sprite_cat_animations_lookup      sprite_cat
     000E578C  _sprite_cat                        sprite_cat
     000E579F  ___func_sprite_river_animation_t   sprite_river_animation_tiles
     000E579F  _sprite_river_animation_tileset    sprite_river_animation_tiles
     000E57C1  _spritesheet_none_metasprite       spritesheet_none
     000E57C5  _spritesheet_none_metasprites      spritesheet_none
     000E57C7  _spritesheet_none                  spritesheet_none
     000E57DA  _trigger_0_interact                trigger_0_interact
     000E5829  _trigger_2_interact                trigger_2_interact
     000E584F  _trigger_7_interact                trigger_7_interact
     000E58AF  _logo_init                         logo
     000E58BF  _logo_update                       logo
ASxxxx Linker V03.00 + NoICE + sdld,  page 57.
Hexadecimal  [32-Bits]

Area                                    Addr        Size        Decimal Bytes (Attributes)
--------------------------------        ----        ----        ------- ----- ------------
_CODE_10                            000A4000    00004000 =       16384. bytes (REL,CON)

      Value  Global                              Global Defined In Module
      -----  --------------------------------   ------------------------
     000A4000  _core_reset                        core
     000A4075  _process_VM                        core
     000A431C  _core_run                          core
     000A43FE  ___HandleCrash_banked              
     000A4765  _printer_send_receive              gbprinter
     000A479F  _printer_send_byte                 gbprinter
     000A47BE  _printer_send_command              gbprinter
     000A47E9  _printer_print_tile                gbprinter
     000A4883  _printer_wait                      gbprinter
     000A48B3  _gbprinter_detect                  gbprinter
     000A48D5  _gbprinter_print_overlay           gbprinter
     000A4B18  _data_init                         load_save
     000A4B63  _save_points                       load_save
     000A4BBB  _data_slot_address                 load_save
     000A4C1F  _data_save                         load_save
     000A4D05  _data_load                         load_save
     000A4E14  _data_clear                        load_save
     000A4E45  _data_peek                         load_save
     000A4EF3  _projectiles_init                  projectiles
     000A4F33  _projectile_launch                 projectiles
     000A533C  _trigger_reset                     trigger
     000A534C  _trigger_interact                  trigger
     000A538C  _trigger_activate_at               trigger
     000A53D7  _trigger_at_intersection           trigger
     000A54EC  _trigger_activate_at_intersectio   trigger
     000A562E  _trigger_at_tile                   trigger
     000A56BE  ___func_bg_3d_hermano2_tilemap_a   bg_3d_hermano2_tilemap_attr
     000A56BE  _bg_3d_hermano2_tilemap_attr       bg_3d_hermano2_tilemap_attr
     000A5ABE  ___func_bg_3d_hermano2_tilemap     bg_3d_hermano2_tilemap
     000A5ABE  _bg_3d_hermano2_tilemap            bg_3d_hermano2_tilemap
     000A6257  _song_song_template_2_Data         song_song_template_2_Data
     000A626C  ___func_scene_1_collisions         scene_1_collisions
     000A626C  _scene_1_collisions                scene_1_collisions
     000A666C  _script_11                         script_11
     000A6A58  _script_13                         script_13
     000A6DA1  _script_20                         script_20
     000A71AC  _script_engine_init                
     000A71F4  ___func_sprite_3d_pig_tileset      sprite_3d_pig_tileset
     000A71F4  _sprite_3d_pig_tileset             sprite_3d_pig_tileset
     000A75F6  ___func_sprite_player_tileset      sprite_player_tileset
     000A75F6  _sprite_player_tileset             sprite_player_tileset
     000A78F8  _trigger_4_interact                trigger_4_interact
     000A7C9D  _pointnclick_init                  pointnclick
     000A7CD6  _pointnclick_update                pointnclick

ASxxxx Linker V03.00 + NoICE + sdld,  page 58.
Hexadecimal  [32-Bits]

Area                                    Addr        Size        Decimal Bytes (Attributes)
--------------------------------        ----        ----        ------- ----- ------------
_CRASH_HEADER0                      00000000    00000005 =           5. bytes (ABS,CON)

      Value  Global                              Global Defined In Module
      -----  --------------------------------   ------------------------
ASxxxx Linker V03.00 + NoICE + sdld,  page 59.
Hexadecimal  [32-Bits]

Area                                    Addr        Size        Decimal Bytes (Attributes)
--------------------------------        ----        ----        ------- ----- ------------
_CRASH_HEADER1                      00000000    00000004 =           4. bytes (ABS,CON)

      Value  Global                              Global Defined In Module
      -----  --------------------------------   ------------------------
ASxxxx Linker V03.00 + NoICE + sdld,  page 60.
Hexadecimal  [32-Bits]

Area                                    Addr        Size        Decimal Bytes (Attributes)
--------------------------------        ----        ----        ------- ----- ------------
_CRASH_SCRATCH2                     00000000    000001CB =         459. bytes (ABS,CON)

      Value  Global                              Global Defined In Module
      -----  --------------------------------   ------------------------
ASxxxx Linker V03.00 + NoICE + sdld,  page 61.
Hexadecimal  [32-Bits]

Area                                    Addr        Size        Decimal Bytes (Attributes)
--------------------------------        ----        ----        ------- ----- ------------
_CODE_1                             00014000    00003FFF =       16383. bytes (REL,CON)

      Value  Global                              Global Defined In Module
      -----  --------------------------------   ------------------------
     00014000  _load_init                         data_manager
     00014013  _spritesheet_none_far              data_manager
     00014016  _load_bkg_tileset                  data_manager
     000140EF  _load_background                   data_manager
     000141ED  _load_sprite                       data_manager
     000142EA  _load_bounds                       data_manager
     0001430A  _do_load_palette                   data_manager
     0001438A  _load_scene                        data_manager
     00014C64  _load_player                       data_manager
     00014CB0  _load_emote                        data_manager
     00014CC4  _ui_swap_tiles                     
     00014D0E  _ui_print_make_mask_lr             
     00014D2A  _ui_print_make_mask_rl             
     00014D46  _ui_init                           ui
     00014E15  _ui_load_tiles                     ui
     00014E6C  _ui_draw_frame                     ui
     00014F00  _ui_print_reset                    ui
     00014F56  _ui_set_start_tile                 ui
     00014F82  _ui_print_render                   ui
     00015223  _ui_draw_text_buffer_char          ui
     00015717  _ui_run_menu                       ui
     000159D5  _ui_run_modal                      ui
     00015AA4  ___func_VM_SGB                     vm_sgb
     00015AA4  ___func_scene_0_sprites            scene_0_sprites
     00015AA4  _scene_0_sprites                   scene_0_sprites
     00015AAA  _scene_11_init                     scene_11_init
     00017F42  ___func_sprite_baby_player         sprite_baby_player
     00017F42  _sprite_baby_player_metasprite_0   sprite_baby_player
     00017F4E  _sprite_baby_player_metasprite_1   sprite_baby_player
     00017F5A  _sprite_baby_player_metasprite_2   sprite_baby_player
     00017F66  _sprite_baby_player_metasprite_3   sprite_baby_player
     00017F72  _sprite_baby_player_metasprite_4   sprite_baby_player
     00017F7E  _sprite_baby_player_metasprite_5   sprite_baby_player
     00017F8A  _sprite_baby_player_metasprite_6   sprite_baby_player
     00017F96  _sprite_baby_player_metasprite_7   sprite_baby_player
     00017FA2  _sprite_baby_player_metasprite_8   sprite_baby_player
     00017FAE  _sprite_baby_player_metasprite_9   sprite_baby_player
     00017FBA  _sprite_baby_player_metasprites    sprite_baby_player
     00017FDA  _sprite_baby_player_animations     sprite_baby_player
     00017FEA  _sprite_baby_player_animations_l   sprite_baby_player
     00017FEC  _sprite_baby_player                sprite_baby_player

ASxxxx Linker V03.00 + NoICE + sdld,  page 62.
Hexadecimal  [32-Bits]

Area                                    Addr        Size        Decimal Bytes (Attributes)
--------------------------------        ----        ----        ------- ----- ------------
_CODE_13                            000D4000    00003FFE =       16382. bytes (REL,CON)

      Value  Global                              Global Defined In Module
      -----  --------------------------------   ------------------------
     000D4000  _events_init                       events
     000D4040  _timers_init                       events
     000D40E8  _save_sram_banks                   
     000D4170  _erase_flash                       
     000D4186  _restore_sram_bank                 flasher
     000D41C0  _restore_sram                      flasher
     000D41D6  _save_sram                         flasher
     000D4206  _music_init_driver                 music_manager
     000D425D  _music_init_events                 music_manager
     000D4299  _music_events_poll                 music_manager
     000D42C3  _music_pause                       music_manager
     000D42E8  ___func_VM_GBPRINTER               vm_gbprinter
     000D42E8  _vm_print_detect                   vm_gbprinter
     000D433A  _vm_print_overlay                  vm_gbprinter
     000D4392  ___func_VM_MATH                    vm_math
     000D4392  _vm_sin_scale                      vm_math
     000D4434  _vm_cos_scale                      vm_math
     000D44D8  ___func_VM_MUSIC                   vm_music
     000D44D8  _vm_music_play                     vm_music
     000D451C  _vm_music_stop                     vm_music
     000D453E  _vm_music_mute                     vm_music
     000D4574  _vm_music_routine                  vm_music
     000D459B  _vm_music_setpos                   vm_music
     000D45A5  _vm_sound_mastervol                vm_music
     000D45AB  _vm_sfx_play                       vm_music
     000D461E  ___func_VM_PROJECTILE              vm_projectiles
     000D461E  _vm_projectile_launch              vm_projectiles
     000D465F  _vm_projectile_load_type           vm_projectiles
     000D470A  ___func_VM_RTC                     vm_rtc
     000D470A  _vm_rtc_latch                      vm_rtc
     000D4712  _vm_rtc_get                        vm_rtc
     000D477B  _vm_rtc_set                        vm_rtc
     000D47E3  _vm_rtc_start                      vm_rtc
     000D4806  ___func_VM_SCENE                   vm_scene
     000D4806  _vm_scene_push                     vm_scene
     000D488B  _vm_scene_pop                      vm_scene
     000D4899  _vm_scene_pop_all                  vm_scene
     000D48A4  _vm_scene_stack_reset              vm_scene
     000D48AD  _itoa_fmt                          vm_ui_a
     000D48E6  .utoa_fmt                          vm_ui_a
     000D4990  _actor_3_update                    actor_3_update
     000D4A2F  _actor_4_update                    actor_4_update
     000D4AC2  ___func_frame_image                frame_image
     000D4AC2  _frame_image                       frame_image
     000D4B52  _scene_1_init                      scene_1_init
     000D4C46  ___func_scene_12_sprites           scene_12_sprites
     000D4C46  _scene_12_sprites                  scene_12_sprites
     000D4C49  _scene_14_init                     scene_14_init
     000D4CCC  _scene_16_init                     scene_16_init
     000D4DEB  _scene_17_init                     scene_17_init
ASxxxx Linker V03.00 + NoICE + sdld,  page 63.
Hexadecimal  [32-Bits]

Area                                    Addr        Size        Decimal Bytes (Attributes)
--------------------------------        ----        ----        ------- ----- ------------
_CODE_13                            000D4000    00003FFE =       16382. bytes (REL,CON)

      Value  Global                              Global Defined In Module
      -----  --------------------------------   ------------------------
     000D4F1F  _scene_18_init                     scene_18_init
     000D5032  ___func_scene_19_collisions        scene_19_collisions
     000D5032  _scene_19_collisions               scene_19_collisions
     000D519A  _scene_19_init                     scene_19_init
     000D52FC  ___func_scene_2_collisions         scene_2_collisions
     000D52FC  _scene_2_collisions                scene_2_collisions
     000D5464  ___func_scene_20_collisions        scene_20_collisions
     000D5464  _scene_20_collisions               scene_20_collisions
     000D55CC  _scene_21_init                     scene_21_init
     000D56B3  ___func_scene_22_collisions        scene_22_collisions
     000D56B3  _scene_22_collisions               scene_22_collisions
     000D581B  ___func_scene_23_collisions        scene_23_collisions
     000D581B  _scene_23_collisions               scene_23_collisions
     000D5983  ___func_scene_24_collisions        scene_24_collisions
     000D5983  _scene_24_collisions               scene_24_collisions
     000D5AEB  _scene_24_init                     scene_24_init
     000D5C41  ___func_scene_3_collisions         scene_3_collisions
     000D5C41  _scene_3_collisions                scene_3_collisions
     000D5DA9  _scene_3_init                      scene_3_init
     000D5EAC  ___func_scene_4_collisions         scene_4_collisions
     000D5EAC  _scene_4_collisions                scene_4_collisions
     000D6014  ___func_scene_5_collisions         scene_5_collisions
     000D6014  _scene_5_collisions                scene_5_collisions
     000D617C  ___func_scene_9_actors             scene_9_actors
     000D617C  _scene_9_actors                    scene_9_actors
     000D6218  ___func_scene_9_sprites            scene_9_sprites
     000D6218  _scene_9_sprites                   scene_9_sprites
     000D621E  ___func_scene_outside_actors       scene_outside_actors
     000D621E  _scene_outside_actors              scene_outside_actors
     000D6356  _scene_outside_init                scene_outside_init
     000D63FF  ___func_scene_title_screen_colli   scene_title_screen_collision
     000D63FF  _scene_title_screen_collisions     scene_title_screen_collision
     000D6567  _script_18                         script_18
     000D667A  _script_21                         script_21
     000D67B0  _script_23                         script_23
     000D6902  _script_26                         script_26
     000D6977  _script_28                         script_28
     000D6A71  _script_6                          script_6
     000D6B6A  _script_7                          script_7
     000D6CBC  _script_input_0                    script_input_0
     000D6D3D  _script_input_1                    script_input_1
     000D6E44  _script_input_5                    script_input_5
     000D6EE8  _script_input_8                    script_input_8
     000D6F81  ___func_sound_cancel_vgm           sound_cancel_vgm
     000D6F81  _sound_cancel_vgm                  sound_cancel_vgm
     000D6FF6  ___func_sound_explosion_vgm        sound_explosion_vgm
     000D6FF6  _sound_explosion_vgm               sound_explosion_vgm
     000D7129  ___func_sprite_3d_hermano          sprite_3d_hermano
     000D7129  _sprite_3d_hermano_metasprite_0    sprite_3d_hermano
     000D7141  _sprite_3d_hermano_metasprite_1    sprite_3d_hermano
     000D7159  _sprite_3d_hermano_metasprite_2    sprite_3d_hermano
ASxxxx Linker V03.00 + NoICE + sdld,  page 64.
Hexadecimal  [32-Bits]

Area                                    Addr        Size        Decimal Bytes (Attributes)
--------------------------------        ----        ----        ------- ----- ------------
_CODE_13                            000D4000    00003FFE =       16382. bytes (REL,CON)

      Value  Global                              Global Defined In Module
      -----  --------------------------------   ------------------------
     000D7171  _sprite_3d_hermano_metasprite_3    sprite_3d_hermano
     000D7189  _sprite_3d_hermano_metasprite_4    sprite_3d_hermano
     000D71A1  _sprite_3d_hermano_metasprites     sprite_3d_hermano
     000D71FD  _sprite_3d_hermano_animations      sprite_3d_hermano
     000D720D  _sprite_3d_hermano_animations_lo   sprite_3d_hermano
     000D720F  _sprite_3d_hermano                 sprite_3d_hermano
     000D7222  ___func_sprite_3d_warangka         sprite_3d_warangka
     000D7222  _sprite_3d_warangka_metasprite_0   sprite_3d_warangka
     000D7236  _sprite_3d_warangka_metasprite_1   sprite_3d_warangka
     000D724A  _sprite_3d_warangka_metasprite_2   sprite_3d_warangka
     000D725E  _sprite_3d_warangka_metasprite_3   sprite_3d_warangka
     000D7272  _sprite_3d_warangka_metasprite_4   sprite_3d_warangka
     000D7286  _sprite_3d_warangka_metasprites    sprite_3d_warangka
     000D7336  _sprite_3d_warangka_animations     sprite_3d_warangka
     000D7346  _sprite_3d_warangka_animations_l   sprite_3d_warangka
     000D7348  _sprite_3d_warangka                sprite_3d_warangka
     000D735B  ___func_sprite_3d_waraya_tileset   sprite_3d_waraya_tileset
     000D735B  _sprite_3d_waraya_tileset          sprite_3d_waraya_tileset
     000D747D  ___func_sprite_baby_player_tiles   sprite_baby_player_tileset
     000D747D  _sprite_baby_player_tileset        sprite_baby_player_tileset
     000D75BF  ___func_sprite_hermano_topdown     sprite_hermano_topdown
     000D75BF  _sprite_hermano_topdown_metaspri   sprite_hermano_topdown
     000D75D3  _sprite_hermano_topdown_metaspri   sprite_hermano_topdown
     000D75E7  _sprite_hermano_topdown_metaspri   sprite_hermano_topdown
     000D75FB  _sprite_hermano_topdown_metaspri   sprite_hermano_topdown
     000D760F  _sprite_hermano_topdown_metaspri   sprite_hermano_topdown
     000D7623  _sprite_hermano_topdown_metaspri   sprite_hermano_topdown
     000D7637  _sprite_hermano_topdown_metaspri   sprite_hermano_topdown
     000D764B  _sprite_hermano_topdown_metaspri   sprite_hermano_topdown
     000D765F  _sprite_hermano_topdown_metaspri   sprite_hermano_topdown
     000D7673  _sprite_hermano_topdown_metaspri   sprite_hermano_topdown
     000D7687  _sprite_hermano_topdown_metaspri   sprite_hermano_topdown
     000D769B  _sprite_hermano_topdown_metaspri   sprite_hermano_topdown
     000D76AF  _sprite_hermano_topdown_metaspri   sprite_hermano_topdown
     000D76D7  _sprite_hermano_topdown_animatio   sprite_hermano_topdown
     000D76E7  _sprite_hermano_topdown_animatio   sprite_hermano_topdown
     000D76E9  _sprite_hermano_topdown            sprite_hermano_topdown
     000D76FC  ___func_sprite_lion_tileset        sprite_lion_tileset
     000D76FC  _sprite_lion_tileset               sprite_lion_tileset
     000D77DE  ___func_sprite_lion                sprite_lion
     000D77DE  _sprite_lion_metasprite_0          sprite_lion
     000D77FA  _sprite_lion_metasprite_1          sprite_lion
     000D7816  _sprite_lion_metasprite_2          sprite_lion
     000D7832  _sprite_lion_metasprite_3          sprite_lion
     000D784E  _sprite_lion_metasprites           sprite_lion
     000D785A  _sprite_lion_animations            sprite_lion
     000D786A  _sprite_lion_animations_lookup     sprite_lion
     000D786C  _sprite_lion                       sprite_lion
     000D787F  ___func_sprite_pig                 sprite_pig
     000D787F  _sprite_pig_metasprite_0           sprite_pig
     000D78A3  _sprite_pig_metasprite_1           sprite_pig
ASxxxx Linker V03.00 + NoICE + sdld,  page 65.
Hexadecimal  [32-Bits]

Area                                    Addr        Size        Decimal Bytes (Attributes)
--------------------------------        ----        ----        ------- ----- ------------
_CODE_13                            000D4000    00003FFE =       16382. bytes (REL,CON)

      Value  Global                              Global Defined In Module
      -----  --------------------------------   ------------------------
     000D78C7  _sprite_pig_metasprite_2           sprite_pig
     000D78EB  _sprite_pig_metasprites            sprite_pig
     000D78F7  _sprite_pig_animations             sprite_pig
     000D7917  _sprite_pig_animations_lookup      sprite_pig
     000D791B  _sprite_pig                        sprite_pig
     000D792E  ___func_sprite_player              sprite_player
     000D792E  _sprite_player_metasprite_0        sprite_player
     000D7942  _sprite_player_metasprite_1        sprite_player
     000D7956  _sprite_player_metasprite_2        sprite_player
     000D796A  _sprite_player_metasprite_3        sprite_player
     000D797E  _sprite_player_metasprite_4        sprite_player
     000D7992  _sprite_player_metasprite_5        sprite_player
     000D79A6  _sprite_player_metasprite_6        sprite_player
     000D79BA  _sprite_player_metasprite_7        sprite_player
     000D79CE  _sprite_player_metasprite_8        sprite_player
     000D79E2  _sprite_player_metasprite_9        sprite_player
     000D79F6  _sprite_player_metasprite_10       sprite_player
     000D7A0A  _sprite_player_metasprite_11       sprite_player
     000D7A1E  _sprite_player_metasprite_12       sprite_player
     000D7A32  _sprite_player_metasprite_13       sprite_player
     000D7A46  _sprite_player_metasprites         sprite_player
     000D7A6E  _sprite_player_animations          sprite_player
     000D7A7E  _sprite_player_animations_lookup   sprite_player
     000D7A80  _sprite_player                     sprite_player
     000D7A93  ___func_sprite_rabbit_tileset      sprite_rabbit_tileset
     000D7A93  _sprite_rabbit_tileset             sprite_rabbit_tileset
     000D7BD5  ___func_sprite_rabbit              sprite_rabbit
     000D7BD5  _sprite_rabbit_metasprite_0        sprite_rabbit
     000D7BE1  _sprite_rabbit_metasprite_1        sprite_rabbit
     000D7BED  _sprite_rabbit_metasprite_2        sprite_rabbit
     000D7BF9  _sprite_rabbit_metasprite_3        sprite_rabbit
     000D7C05  _sprite_rabbit_metasprite_4        sprite_rabbit
     000D7C11  _sprite_rabbit_metasprite_5        sprite_rabbit
     000D7C1D  _sprite_rabbit_metasprite_6        sprite_rabbit
     000D7C21  _sprite_rabbit_metasprite_7        sprite_rabbit
     000D7C2D  _sprite_rabbit_metasprite_8        sprite_rabbit
     000D7C39  _sprite_rabbit_metasprite_9        sprite_rabbit
     000D7C45  _sprite_rabbit_metasprite_10       sprite_rabbit
     000D7C51  _sprite_rabbit_metasprites         sprite_rabbit
     000D7C75  _sprite_rabbit_animations          sprite_rabbit
     000D7C85  _sprite_rabbit_animations_lookup   sprite_rabbit
     000D7C87  _sprite_rabbit                     sprite_rabbit
     000D7C9A  ___func_sprite_river_animation     sprite_river_animation
     000D7C9A  _sprite_river_animation_metaspri   sprite_river_animation
     000D7CA2  _sprite_river_animation_metaspri   sprite_river_animation
     000D7CAA  _sprite_river_animation_metaspri   sprite_river_animation
     000D7CB2  _sprite_river_animation_metaspri   sprite_river_animation
     000D7CBA  _sprite_river_animation_metaspri   sprite_river_animation
     000D7CC2  _sprite_river_animation_metaspri   sprite_river_animation
     000D7CCA  _sprite_river_animation_metaspri   sprite_river_animation
     000D7CD2  _sprite_river_animation_metaspri   sprite_river_animation
ASxxxx Linker V03.00 + NoICE + sdld,  page 66.
Hexadecimal  [32-Bits]

Area                                    Addr        Size        Decimal Bytes (Attributes)
--------------------------------        ----        ----        ------- ----- ------------
_CODE_13                            000D4000    00003FFE =       16382. bytes (REL,CON)

      Value  Global                              Global Defined In Module
      -----  --------------------------------   ------------------------
     000D7CDA  _sprite_river_animation_metaspri   sprite_river_animation
     000D7CEA  _sprite_river_animation_animatio   sprite_river_animation
     000D7CFA  _sprite_river_animation_animatio   sprite_river_animation
     000D7CFC  _sprite_river_animation            sprite_river_animation
     000D7D0F  _trigger_1_interact                trigger_1_interact
     000D7DA1  _trigger_3_interact                trigger_3_interact
     000D7E16  _trigger_6_interact                trigger_6_interact
     000D7F6C  _trigger_8_interact                trigger_8_interact

ASxxxx Linker V03.00 + NoICE + sdld,  page 67.
Hexadecimal  [32-Bits]

Area                                    Addr        Size        Decimal Bytes (Attributes)
--------------------------------        ----        ----        ------- ----- ------------
_CODE_11                            000B4000    00003FFF =       16383. bytes (REL,CON)

      Value  Global                              Global Defined In Module
      -----  --------------------------------   ------------------------
     000B4000  _CGBFadeToWhiteStep                fade_manager
     000B4039  _CGBFadeToBlackStep                fade_manager
     000B4074  _ApplyPaletteChangeColor           fade_manager
     000B40B8  _fade_speeds                       fade_manager
     000B40BF  _DMGFadeToWhiteStep                fade_manager
     000B40E2  _DMGFadeToBlackStep                fade_manager
     000B4107  _ApplyPaletteChangeDMG             fade_manager
     000B417E  _fade_init                         fade_manager
     000B41A6  _fade_in                           fade_manager
     000B41D7  _fade_out                          fade_manager
     000B4209  _fade_update                       fade_manager
     000B4263  _fade_applypalettechange           fade_manager
     000B427D  _fade_setspeed                     fade_manager
     000B428D  _fade_in_modal                     fade_manager
     000B42A7  _fade_out_modal                    fade_manager
     000B42C1  _set_sgb_border                    sgb_border
     000B44F2  ___func_VM_CAMERA                  vm_camera
     000B44F2  _vm_camera_move_to                 vm_camera
     000B4645  _vm_camera_set_pos                 vm_camera
     000B468C  _camera_shake_frames               vm_camera
     000B4784  ___func_VM_PALETTE                 vm_palette
     000B4784  _vm_load_palette                   vm_palette
     000B4938  _actor_8_update                    actor_8_update
     000B4AEA  ___func_bg_3d_hermano_tilemap_at   bg_3d_hermano_tilemap_attr
     000B4AEA  _bg_3d_hermano_tilemap_attr        bg_3d_hermano_tilemap_attr
     000B4C9A  ___func_bg_3d_hermano_tilemap      bg_3d_hermano_tilemap
     000B4C9A  _bg_3d_hermano_tilemap             bg_3d_hermano_tilemap
     000B4E4A  ___func_bg_3d_pig_tilemap_attr     bg_3d_pig_tilemap_attr
     000B4E4A  _bg_3d_pig_tilemap_attr            bg_3d_pig_tilemap_attr
     000B4FFA  ___func_bg_3d_pig_tilemap          bg_3d_pig_tilemap
     000B4FFA  _bg_3d_pig_tilemap                 bg_3d_pig_tilemap
     000B51AA  ___func_bg_3d_rabbit_tilemap_att   bg_3d_rabbit_tilemap_attr
     000B51AA  _bg_3d_rabbit_tilemap_attr         bg_3d_rabbit_tilemap_attr
     000B535A  ___func_bg_3d_rabbit_tilemap       bg_3d_rabbit_tilemap
     000B535A  _bg_3d_rabbit_tilemap              bg_3d_rabbit_tilemap
     000B550A  ___func_palette_0                  palette_0
     000B550A  _palette_0                         palette_0
     000B554D  ___func_scene_10_sprites           scene_10_sprites
     000B554D  _scene_10_sprites                  scene_10_sprites
     000B5550  _scene_20_init                     scene_20_init
     000B57DE  _scene_22_init                     scene_22_init
     000B5A82  _scene_23_init                     scene_23_init
     000B5C75  _scene_4_init                      scene_4_init
     000B5E29  _script_10                         script_10
     000B6065  _script_12                         script_12
     000B62B3  _script_15                         script_15
     000B6476  _script_16                         script_16
     000B66BE  _script_17                         script_17
     000B698B  _script_2                          script_2
     000B6BC0  _script_3                          script_3
ASxxxx Linker V03.00 + NoICE + sdld,  page 68.
Hexadecimal  [32-Bits]

Area                                    Addr        Size        Decimal Bytes (Attributes)
--------------------------------        ----        ----        ------- ----- ------------
_CODE_11                            000B4000    00003FFF =       16383. bytes (REL,CON)

      Value  Global                              Global Defined In Module
      -----  --------------------------------   ------------------------
     000B6D85  _script_4                          script_4
     000B6FA3  _script_9                          script_9
     000B715D  ___func_sound_monster_scream_vgm   sound_monster_scream_vgm
     000B715D  _sound_monster_scream_vgm          sound_monster_scream_vgm
     000B73D1  ___func_sprite_3d_hermano_flare    sprite_3d_hermano_flare
     000B73D1  _sprite_3d_hermano_flare_metaspr   sprite_3d_hermano_flare
     000B7411  _sprite_3d_hermano_flare_metaspr   sprite_3d_hermano_flare
     000B7451  _sprite_3d_hermano_flare_metaspr   sprite_3d_hermano_flare
     000B7495  _sprite_3d_hermano_flare_metaspr   sprite_3d_hermano_flare
     000B74D5  _sprite_3d_hermano_flare_metaspr   sprite_3d_hermano_flare
     000B7515  _sprite_3d_hermano_flare_metaspr   sprite_3d_hermano_flare
     000B7555  _sprite_3d_hermano_flare_metaspr   sprite_3d_hermano_flare
     000B7595  _sprite_3d_hermano_flare_metaspr   sprite_3d_hermano_flare
     000B75A7  _sprite_3d_hermano_flare_animati   sprite_3d_hermano_flare
     000B75B7  _sprite_3d_hermano_flare_animati   sprite_3d_hermano_flare
     000B75B9  _sprite_3d_hermano_flare           sprite_3d_hermano_flare
     000B75CC  ___func_sprite_3d_hermano_tilese   sprite_3d_hermano_tileset
     000B75CC  _sprite_3d_hermano_tileset         sprite_3d_hermano_tileset
     000B786E  ___func_sprite_hermano_topdown_t   sprite_hermano_topdown_tiles
     000B786E  _sprite_hermano_topdown_tileset    sprite_hermano_topdown_tiles
     000B7B10  ___func_sprite_pig_tileset         sprite_pig_tileset
     000B7B10  _sprite_pig_tileset                sprite_pig_tileset
     000B7D52  _trigger_5_interact                trigger_5_interact

ASxxxx Linker V03.00 + NoICE + sdld,  page 69.
Hexadecimal  [32-Bits]

Area                                    Addr        Size        Decimal Bytes (Attributes)
--------------------------------        ----        ----        ------- ----- ------------
_HEADER_SIO0                        00000000    00000004 =           4. bytes (ABS,CON)

      Value  Global                              Global Defined In Module
      -----  --------------------------------   ------------------------
ASxxxx Linker V03.00 + NoICE + sdld,  page 70.
Hexadecimal  [32-Bits]

Area                                    Addr        Size        Decimal Bytes (Attributes)
--------------------------------        ----        ----        ------- ----- ------------
_HEADER_TIMER0                      00000000    00000004 =           4. bytes (ABS,CON)

      Value  Global                              Global Defined In Module
      -----  --------------------------------   ------------------------
ASxxxx Linker V03.00 + NoICE + sdld,  page 71.
Hexadecimal  [32-Bits]

Area                                    Addr        Size        Decimal Bytes (Attributes)
--------------------------------        ----        ----        ------- ----- ------------
_CODE_9                             00094000    00003FFF =       16383. bytes (REL,CON)

      Value  Global                              Global Defined In Module
      -----  --------------------------------   ------------------------
     00094000  _scroll_init                       scroll
     0009402A  _scroll_reset                      scroll
     0009404A  _scroll_update                     scroll
     00094161  _scroll_viewport                   scroll
     0009460F  _scroll_repaint                    scroll
     0009461F  _scroll_render_rows                scroll
     000946A7  _scroll_queue_row                  scroll
     000946CC  _scroll_queue_col                  scroll
     00094718  ___func_VM_GAMEBOY                 vm_gameboy
     00094718  _vm_set_sprites_visible            vm_gameboy
     0009472F  _vm_input_wait                     vm_gameboy
     00094758  _vm_context_prepare                vm_gameboy
     00094783  _vm_input_attach                   vm_gameboy
     00094799  _vm_input_detach                   vm_gameboy
     000947AD  _vm_input_get                      vm_gameboy
     000947E1  _vm_fade                           vm_gameboy
     00094813  _vm_timer_prepare                  vm_gameboy
     0009483E  _vm_timer_set                      vm_gameboy
     00094859  _vm_timer_stop                     vm_gameboy
     0009486D  _vm_timer_reset                    vm_gameboy
     00094884  _vm_get_tile_xy                    vm_gameboy
     0009496D  _vm_replace_tile                   vm_gameboy
     00094A16  _vm_poll                           vm_gameboy
     00094AE8  _vm_set_sprite_mode                vm_gameboy
     00094AFC  _vm_replace_tile_xy                vm_gameboy
     00094C1E  _vm_rumble                         vm_gameboy
     00094C3E  _vm_load_tiles                     vm_gameboy
     00094C53  _vm_load_tileset                   vm_gameboy
     000951D1  _song_template_0_Data              song_template_0_Data
     000951E6  _scene_9_init                      scene_9_init
     000957A7  _script_5                          script_5
     00095DEC  _script_8                          script_8
     00095F25  ___func_sprite_3d_pig              sprite_3d_pig
     00095F25  _sprite_3d_pig_metasprite_0        sprite_3d_pig
     00095FA5  _sprite_3d_pig_metasprite_1        sprite_3d_pig
     00096029  _sprite_3d_pig_metasprite_2        sprite_3d_pig
     000960AD  _sprite_3d_pig_metasprite_3        sprite_3d_pig
     00096131  _sprite_3d_pig_metasprite_4        sprite_3d_pig
     000961B5  _sprite_3d_pig_metasprite_5        sprite_3d_pig
     00096231  _sprite_3d_pig_metasprite_6        sprite_3d_pig
     000962AD  _sprite_3d_pig_metasprite_7        sprite_3d_pig
     00096329  _sprite_3d_pig_metasprite_8        sprite_3d_pig
     000963AD  _sprite_3d_pig_metasprite_9        sprite_3d_pig
     00096431  _sprite_3d_pig_metasprite_10       sprite_3d_pig
     00096439  _sprite_3d_pig_metasprite_11       sprite_3d_pig
     000964B5  _sprite_3d_pig_metasprite_12       sprite_3d_pig
     00096531  _sprite_3d_pig_metasprite_13       sprite_3d_pig
     000965B1  _sprite_3d_pig_metasprites         sprite_3d_pig
     000965F9  _sprite_3d_pig_animations          sprite_3d_pig
     00096629  _sprite_3d_pig_animations_lookup   sprite_3d_pig
ASxxxx Linker V03.00 + NoICE + sdld,  page 72.
Hexadecimal  [32-Bits]

Area                                    Addr        Size        Decimal Bytes (Attributes)
--------------------------------        ----        ----        ------- ----- ------------
_CODE_9                             00094000    00003FFF =       16383. bytes (REL,CON)

      Value  Global                              Global Defined In Module
      -----  --------------------------------   ------------------------
     00096635  _sprite_3d_pig                     sprite_3d_pig
     00096648  ___func_sprite_3d_rabbit           sprite_3d_rabbit
     00096648  _sprite_3d_rabbit_metasprite_0     sprite_3d_rabbit
     000966DC  _sprite_3d_rabbit_metasprite_1     sprite_3d_rabbit
     00096770  _sprite_3d_rabbit_metasprite_2     sprite_3d_rabbit
     00096804  _sprite_3d_rabbit_metasprite_3     sprite_3d_rabbit
     00096898  _sprite_3d_rabbit_metasprite_4     sprite_3d_rabbit
     00096928  _sprite_3d_rabbit_metasprite_5     sprite_3d_rabbit
     000969BC  _sprite_3d_rabbit_metasprite_6     sprite_3d_rabbit
     00096A48  _sprite_3d_rabbit_metasprites      sprite_3d_rabbit
     00096A66  _sprite_3d_rabbit_animations       sprite_3d_rabbit
     00096A96  _sprite_3d_rabbit_animations_loo   sprite_3d_rabbit
     00096A9E  _sprite_3d_rabbit                  sprite_3d_rabbit
     00096AB1  _adventure_init                    adventure
     00096AC6  _adventure_update                  adventure
     000971DD  _shmup_init                        shmup
     00097279  _shmup_update                      shmup
     000978F8  _topdown_init                      topdown
     0009798F  _topdown_update                    topdown
ASxxxx Linker V03.00 + NoICE + sdld,  page 73.
Hexadecimal  [32-Bits]

Area                                    Addr        Size        Decimal Bytes (Attributes)
--------------------------------        ----        ----        ------- ----- ------------
_CODE_5                             00054000    00003FFF =       16383. bytes (REL,CON)

      Value  Global                              Global Defined In Module
      -----  --------------------------------   ------------------------
     00054000  _SIO_init                          sio
     00054029  ___func_bg_3d_hermano_tileset      bg_3d_hermano_tileset
     00054029  _bg_3d_hermano_tileset             bg_3d_hermano_tileset
     00054C2B  ___func_bg_3d_hermano2_tileset     bg_3d_hermano2_tileset
     00054C2B  _bg_3d_hermano2_tileset            bg_3d_hermano2_tileset
     000553FD  ___func_bg_3d_waraya_tileset       bg_3d_waraya_tileset
     000553FD  _bg_3d_waraya_tileset              bg_3d_waraya_tileset
     00055FFF  ___func_bg_outside_tilemap         bg_outside_tilemap
     00055FFF  _bg_outside_tilemap                bg_outside_tilemap
     00056FFF  ___func_scene_outside_collisions   scene_outside_collisions
     00056FFF  _scene_outside_collisions          scene_outside_collisions

ASxxxx Linker V03.00 + NoICE + sdld,  page 74.
Hexadecimal  [32-Bits]

Area                                    Addr        Size        Decimal Bytes (Attributes)
--------------------------------        ----        ----        ------- ----- ------------
_CODE_4                             00044000    00004000 =       16384. bytes (REL,CON)

      Value  Global                              Global Defined In Module
      -----  --------------------------------   ------------------------
     00044000  ___func_VM_LOAD_SAVE               vm_load_save
     00044000  _vm_save_clear                     vm_load_save
     0004400F  _vm_save_peek                      vm_load_save
     00044091  ___func_VM_MAIN                    vm
     00044091  _vm_call                           vm
     000440D3  _vm_ret                            vm
     00044132  _vm_call_far                       vm
     000441AF  _vm_ret_far                        vm
     0004421E  _vm_push                           vm
     00044248  _vm_pop                            vm
     00044283  _vm_loop                           vm
     00044310  _vm_jump                           vm
     0004431C  _wait_frames                       vm
     00044393  _vm_invoke                         vm
     000444BF  _vm_join                           vm
     00044518  _vm_terminate                      vm
     00044545  _vm_if                             vm
     00044689  _vm_if_const                       vm
     0004479D  _vm_push_value                     vm
     000447EF  _vm_push_value_ind                 vm
     00044864  _vm_push_reference                 vm
     000448BB  _vm_reserve                        vm
     000448E8  _vm_set                            vm
     00044949  _vm_set_const                      vm
     00044975  _vm_get_tlocal                     vm
     00044A02  _vm_test_terminate                 vm
     00044A0D  _vm_idle                           vm
     00044A19  _vm_get_uint8                      vm
     00044A4C  _vm_get_int8                       vm
     00044A80  _vm_get_int16                      vm
     00044AC2  _vm_set_uint8                      vm
     00044AEE  _vm_set_int8                       vm
     00044B1A  _vm_set_int16                      vm
     00044B59  _vm_set_const_int8                 vm
     00044B62  _vm_set_const_int16                vm
     00044B6E  _vm_init_rng                       vm
     00044B9A  _vm_rand                           vm
     00044C1F  _vm_lock                           vm
     00044C2E  _vm_unlock                         vm
     00044C41  _vm_raise                          vm
     00044C83  _vm_set_indirect                   vm
     00044CFE  _vm_get_indirect                   vm
     00044D79  _vm_poll_loaded                    vm
     00044DA8  _vm_memset                         vm
     00044DED  _vm_memcpy                         vm
     00044E6D  _script_runner_init                vm
     00044F29  _script_execute                    vm
     0004506E  _script_terminate                  vm
     000450D4  _script_detach_hthread             vm
     00045111  ___func_bg_outside_tilemap_attr    bg_outside_tilemap_attr
ASxxxx Linker V03.00 + NoICE + sdld,  page 75.
Hexadecimal  [32-Bits]

Area                                    Addr        Size        Decimal Bytes (Attributes)
--------------------------------        ----        ----        ------- ----- ------------
_CODE_4                             00044000    00004000 =       16384. bytes (REL,CON)

      Value  Global                              Global Defined In Module
      -----  --------------------------------   ------------------------
     00045111  _bg_outside_tilemap_attr           bg_outside_tilemap_attr
     00046111  ___func_font_gbs_mono              font_gbs_mono
     00046EC1  _font_gbs_mono                     font_gbs_mono
     00046EC9  _platform_init                     platform
     0004707D  _platform_update                   platform

ASxxxx Linker V03.00 + NoICE + sdld,  page 76.
Hexadecimal  [32-Bits]

Area                                    Addr        Size        Decimal Bytes (Attributes)
--------------------------------        ----        ----        ------- ----- ------------
_CODE_12                            000C4000    00003FFF =       16383. bytes (REL,CON)

      Value  Global                              Global Defined In Module
      -----  --------------------------------   ------------------------
     000C4000  ___func_avatar_font_0              avatar_font_0
     000C4198  _avatar_font_0                     avatar_font_0
     000C41A0  ___func_bg_3d_warangka_tilemap_a   bg_3d_warangka_tilemap_attr
     000C41A0  _bg_3d_warangka_tilemap_attr       bg_3d_warangka_tilemap_attr
     000C4350  ___func_bg_3d_warangka_tilemap     bg_3d_warangka_tilemap
     000C4350  _bg_3d_warangka_tilemap            bg_3d_warangka_tilemap
     000C4500  ___func_bg_3d_waraya_tilemap_att   bg_3d_waraya_tilemap_attr
     000C4500  _bg_3d_waraya_tilemap_attr         bg_3d_waraya_tilemap_attr
     000C46B0  ___func_bg_3d_waraya_tilemap       bg_3d_waraya_tilemap
     000C46B0  _bg_3d_waraya_tilemap              bg_3d_waraya_tilemap
     000C4860  ___func_bg_credits_tilemap_attr    bg_credits_tilemap_attr
     000C4860  _bg_credits_tilemap_attr           bg_credits_tilemap_attr
     000C49C8  ___func_bg_credits_tilemap         bg_credits_tilemap
     000C49C8  _bg_credits_tilemap                bg_credits_tilemap
     000C4B30  ___func_bg_ending_1_tilemap_attr   bg_ending_1_tilemap_attr
     000C4B30  _bg_ending_1_tilemap_attr          bg_ending_1_tilemap_attr
     000C4C98  ___func_bg_ending_1_tilemap        bg_ending_1_tilemap
     000C4C98  _bg_ending_1_tilemap               bg_ending_1_tilemap
     000C4E00  ___func_bg_ending_2a_tilemap_att   bg_ending_2a_tilemap_attr
     000C4E00  _bg_ending_2a_tilemap_attr         bg_ending_2a_tilemap_attr
     000C4F68  ___func_bg_ending_2a_tilemap       bg_ending_2a_tilemap
     000C4F68  _bg_ending_2a_tilemap              bg_ending_2a_tilemap
     000C50D0  ___func_bg_ending_2b_tilemap_att   bg_ending_2b_tilemap_attr
     000C50D0  _bg_ending_2b_tilemap_attr         bg_ending_2b_tilemap_attr
     000C5238  ___func_bg_ending_2b_tilemap       bg_ending_2b_tilemap
     000C5238  _bg_ending_2b_tilemap              bg_ending_2b_tilemap
     000C53A0  ___func_bg_ending_3_tilemap_attr   bg_ending_3_tilemap_attr
     000C53A0  _bg_ending_3_tilemap_attr          bg_ending_3_tilemap_attr
     000C5508  ___func_bg_ending_3_tilemap        bg_ending_3_tilemap
     000C5508  _bg_ending_3_tilemap               bg_ending_3_tilemap
     000C5670  ___func_bg_ending_4a_tilemap_att   bg_ending_4a_tilemap_attr
     000C5670  _bg_ending_4a_tilemap_attr         bg_ending_4a_tilemap_attr
     000C57D8  ___func_bg_ending_4a_tilemap       bg_ending_4a_tilemap
     000C57D8  _bg_ending_4a_tilemap              bg_ending_4a_tilemap
     000C5940  ___func_bg_ending_4b_tilemap_att   bg_ending_4b_tilemap_attr
     000C5940  _bg_ending_4b_tilemap_attr         bg_ending_4b_tilemap_attr
     000C5AA8  ___func_bg_ending_4b_tilemap       bg_ending_4b_tilemap
     000C5AA8  _bg_ending_4b_tilemap              bg_ending_4b_tilemap
     000C5C10  ___func_bg_ending_5a_tilemap_att   bg_ending_5a_tilemap_attr
     000C5C10  _bg_ending_5a_tilemap_attr         bg_ending_5a_tilemap_attr
     000C5D78  ___func_bg_ending_5a_tilemap       bg_ending_5a_tilemap
     000C5D78  _bg_ending_5a_tilemap              bg_ending_5a_tilemap
     000C5EE0  ___func_bg_ending_5b_tilemap_att   bg_ending_5b_tilemap_attr
     000C5EE0  _bg_ending_5b_tilemap_attr         bg_ending_5b_tilemap_attr
     000C6048  ___func_bg_ending_5b_tilemap       bg_ending_5b_tilemap
     000C6048  _bg_ending_5b_tilemap              bg_ending_5b_tilemap
     000C61B0  ___func_bg_ending_6_tilemap_attr   bg_ending_6_tilemap_attr
     000C61B0  _bg_ending_6_tilemap_attr          bg_ending_6_tilemap_attr
     000C633F  ___func_bg_ending_6_tilemap        bg_ending_6_tilemap
     000C633F  _bg_ending_6_tilemap               bg_ending_6_tilemap
ASxxxx Linker V03.00 + NoICE + sdld,  page 77.
Hexadecimal  [32-Bits]

Area                                    Addr        Size        Decimal Bytes (Attributes)
--------------------------------        ----        ----        ------- ----- ------------
_CODE_12                            000C4000    00003FFF =       16383. bytes (REL,CON)

      Value  Global                              Global Defined In Module
      -----  --------------------------------   ------------------------
     000C64CE  ___func_bg_game_over_tilemap_att   bg_game_over_tilemap_attr
     000C64CE  _bg_game_over_tilemap_attr         bg_game_over_tilemap_attr
     000C6636  ___func_bg_game_over_tilemap       bg_game_over_tilemap
     000C6636  _bg_game_over_tilemap              bg_game_over_tilemap
     000C679E  ___func_scene_10_collisions        scene_10_collisions
     000C679E  _scene_10_collisions               scene_10_collisions
     000C694E  ___func_scene_11_collisions        scene_11_collisions
     000C694E  _scene_11_collisions               scene_11_collisions
     000C6AFE  ___func_scene_11_sprites           scene_11_sprites
     000C6AFE  _scene_11_sprites                  scene_11_sprites
     000C6B01  ___func_scene_12_collisions        scene_12_collisions
     000C6B01  _scene_12_collisions               scene_12_collisions
     000C6CB1  ___func_scene_13_collisions        scene_13_collisions
     000C6CB1  _scene_13_collisions               scene_13_collisions
     000C6E61  ___func_scene_13_sprites           scene_13_sprites
     000C6E61  _scene_13_sprites                  scene_13_sprites
     000C6E67  ___func_scene_14_collisions        scene_14_collisions
     000C6E67  _scene_14_collisions               scene_14_collisions
     000C6FCF  ___func_scene_16_collisions        scene_16_collisions
     000C6FCF  _scene_16_collisions               scene_16_collisions
     000C7137  ___func_scene_17_collisions        scene_17_collisions
     000C7137  _scene_17_collisions               scene_17_collisions
     000C729F  ___func_scene_18_collisions        scene_18_collisions
     000C729F  _scene_18_collisions               scene_18_collisions
     000C7407  _scene_2_init                      scene_2_init
     000C75A6  ___func_scene_21_collisions        scene_21_collisions
     000C75A6  _scene_21_collisions               scene_21_collisions
     000C7735  _scene_5_init                      scene_5_init
     000C78AA  ___func_scene_9_collisions         scene_9_collisions
     000C78AA  _scene_9_collisions                scene_9_collisions
     000C7A5A  _scene_title_screen_init           scene_title_screen_init
     000C7B6E  _script_24                         script_24
     000C7CE4  ___func_sprite_3d_warangka_tiles   sprite_3d_warangka_tileset
     000C7CE4  _sprite_3d_warangka_tileset        sprite_3d_warangka_tileset
     000C7E66  ___func_sprite_3d_waraya           sprite_3d_waraya
     000C7E66  _sprite_3d_waraya_metasprite_0     sprite_3d_waraya
     000C7E7A  _sprite_3d_waraya_metasprite_1     sprite_3d_waraya
     000C7E8E  _sprite_3d_waraya_metasprite_2     sprite_3d_waraya
     000C7EA2  _sprite_3d_waraya_metasprite_3     sprite_3d_waraya
     000C7EB6  _sprite_3d_waraya_metasprite_4     sprite_3d_waraya
     000C7ECA  _sprite_3d_waraya_metasprites      sprite_3d_waraya
     000C7FBE  _sprite_3d_waraya_animations       sprite_3d_waraya
     000C7FDE  _sprite_3d_waraya_animations_loo   sprite_3d_waraya
     000C7FEC  _sprite_3d_waraya                  sprite_3d_waraya

ASxxxx Linker V03.00 + NoICE + sdld,  page 78.
Hexadecimal  [32-Bits]

Area                                    Addr        Size        Decimal Bytes (Attributes)
--------------------------------        ----        ----        ------- ----- ------------
_CODE_6                             00064000    00003FFE =       16382. bytes (REL,CON)

      Value  Global                              Global Defined In Module
      -----  --------------------------------   ------------------------
     00064000  ___func_bg_3d_pig_tileset          bg_3d_pig_tileset
     00064000  _bg_3d_pig_tileset                 bg_3d_pig_tileset
     00064BF2  ___func_bg_ending_2a_tileset       bg_ending_2a_tileset
     00064BF2  _bg_ending_2a_tileset              bg_ending_2a_tileset
     000657F4  ___func_bg_ending_2b_tileset       bg_ending_2b_tileset
     000657F4  _bg_ending_2b_tileset              bg_ending_2b_tileset
     000663D6  ___func_bg_ending_5a_tileset       bg_ending_5a_tileset
     000663D6  _bg_ending_5a_tileset              bg_ending_5a_tileset
     00066F98  ___func_bg_outside_tileset         bg_outside_tileset
     00066F98  _bg_outside_tileset                bg_outside_tileset
     00067AAA  ___func_scene_outside_sprites      scene_outside_sprites
     00067AAA  _scene_outside_sprites             scene_outside_sprites
     00067ABC  ___func_sprite_3d_hermano_flare_   sprite_3d_hermano_flare_tile
     00067ABC  _sprite_3d_hermano_flare_tileset   sprite_3d_hermano_flare_tile

ASxxxx Linker V03.00 + NoICE + sdld,  page 79.
Hexadecimal  [32-Bits]

Area                                    Addr        Size        Decimal Bytes (Attributes)
--------------------------------        ----        ----        ------- ----- ------------
_CODE_7                             00074000    00003FFE =       16382. bytes (REL,CON)

      Value  Global                              Global Defined In Module
      -----  --------------------------------   ------------------------
     00074000  ___func_bg_3d_rabbit_tileset       bg_3d_rabbit_tileset
     00074000  _bg_3d_rabbit_tileset              bg_3d_rabbit_tileset
     00074AE2  ___func_bg_3d_warangka_tileset     bg_3d_warangka_tileset
     00074AE2  _bg_3d_warangka_tileset            bg_3d_warangka_tileset
     00075584  ___func_bg_cave_tileset            bg_cave_tileset
     00075584  _bg_cave_tileset                   bg_cave_tileset
     00075F36  ___func_bg_credits_tileset         bg_credits_tileset
     00075F36  _bg_credits_tileset                bg_credits_tileset
     00076348  ___func_bg_ending_4a_tileset       bg_ending_4a_tileset
     00076348  _bg_ending_4a_tileset              bg_ending_4a_tileset
     00076D8A  ___func_bg_ending_4b_tileset       bg_ending_4b_tileset
     00076D8A  _bg_ending_4b_tileset              bg_ending_4b_tileset
     0007769C  ___func_bg_ending_6_tileset        bg_ending_6_tileset
     0007769C  _bg_ending_6_tileset               bg_ending_6_tileset

ASxxxx Linker V03.00 + NoICE + sdld,  page 80.
Hexadecimal  [32-Bits]

Area                                    Addr        Size        Decimal Bytes (Attributes)
--------------------------------        ----        ----        ------- ----- ------------
_CODE_2                             00024000    00004000 =       16384. bytes (REL,CON)

      Value  Global                              Global Defined In Module
      -----  --------------------------------   ------------------------
     00024000  ___func_cursor_image               cursor_image
     00024000  _cursor_image                      cursor_image
     00024010  _scene_10_init                     scene_10_init
     00026099  _scene_13_init                     scene_13_init
     00027E31  _script_27                         script_27

ASxxxx Linker V03.00 + NoICE + sdld,  page 81.
Hexadecimal  [32-Bits]

Area                                    Addr        Size        Decimal Bytes (Attributes)
--------------------------------        ----        ----        ------- ----- ------------
_HEADER_LCD0                        00000000    00000003 =           3. bytes (ABS,CON)

      Value  Global                              Global Defined In Module
      -----  --------------------------------   ------------------------
ASxxxx Linker V03.00 + NoICE + sdld,  page 82.

Files Linked                              [ module(s) ]

/var/folders/ck/8npsd__n1ql0b7wlfp9r5w5h0000gn/T/_gbstools/gbdk/lib/small/asxxxx/gb/crt0.o
                                          [ Runtime ]
/var/folders/ck/8npsd__n1ql0b7wlfp9r5w5h0000gn/T/_gbsbuild/obj/___sdcc_bcall_ehl.rel
                                          [  ]
/var/folders/ck/8npsd__n1ql0b7wlfp9r5w5h0000gn/T/_gbsbuild/obj/absolute.rel
                                          [ absolute ]
/var/folders/ck/8npsd__n1ql0b7wlfp9r5w5h0000gn/T/_gbsbuild/obj/actor.rel
                                          [ actor ]
/var/folders/ck/8npsd__n1ql0b7wlfp9r5w5h0000gn/T/_gbsbuild/obj/bankdata.rel
                                          [ bankdata ]
/var/folders/ck/8npsd__n1ql0b7wlfp9r5w5h0000gn/T/_gbsbuild/obj/bootstrap.rel
                                          [  ]
/var/folders/ck/8npsd__n1ql0b7wlfp9r5w5h0000gn/T/_gbsbuild/obj/camera.rel
                                          [ camera ]
/var/folders/ck/8npsd__n1ql0b7wlfp9r5w5h0000gn/T/_gbsbuild/obj/core.rel
                                          [ core ]
/var/folders/ck/8npsd__n1ql0b7wlfp9r5w5h0000gn/T/_gbsbuild/obj/crash_handler.rel
                                          [  ]
/var/folders/ck/8npsd__n1ql0b7wlfp9r5w5h0000gn/T/_gbsbuild/obj/data_manager.rel
                                          [ data_manager ]
/var/folders/ck/8npsd__n1ql0b7wlfp9r5w5h0000gn/T/_gbsbuild/obj/events.rel
                                          [ events ]
/var/folders/ck/8npsd__n1ql0b7wlfp9r5w5h0000gn/T/_gbsbuild/obj/fade_manager.rel
                                          [ fade_manager ]
/var/folders/ck/8npsd__n1ql0b7wlfp9r5w5h0000gn/T/_gbsbuild/obj/flasher_s.rel
                                          [  ]
/var/folders/ck/8npsd__n1ql0b7wlfp9r5w5h0000gn/T/_gbsbuild/obj/flasher.rel
                                          [ flasher ]
/var/folders/ck/8npsd__n1ql0b7wlfp9r5w5h0000gn/T/_gbsbuild/obj/game_time.rel
                                          [ game_time ]
/var/folders/ck/8npsd__n1ql0b7wlfp9r5w5h0000gn/T/_gbsbuild/obj/gbprinter.rel
                                          [ gbprinter ]
/var/folders/ck/8npsd__n1ql0b7wlfp9r5w5h0000gn/T/_gbsbuild/obj/input.rel
                                          [ input ]
/var/folders/ck/8npsd__n1ql0b7wlfp9r5w5h0000gn/T/_gbsbuild/obj/interrupt_sio.rel
                                          [  ]
/var/folders/ck/8npsd__n1ql0b7wlfp9r5w5h0000gn/T/_gbsbuild/obj/interrupt_timer.rel
                                          [  ]
/var/folders/ck/8npsd__n1ql0b7wlfp9r5w5h0000gn/T/_gbsbuild/obj/interrupts.rel
                                          [ interrupts ]
/var/folders/ck/8npsd__n1ql0b7wlfp9r5w5h0000gn/T/_gbsbuild/obj/load_save.rel
                                          [ load_save ]
/var/folders/ck/8npsd__n1ql0b7wlfp9r5w5h0000gn/T/_gbsbuild/obj/math.rel
                                          [ math ]
/var/folders/ck/8npsd__n1ql0b7wlfp9r5w5h0000gn/T/_gbsbuild/obj/music_manager.rel
                                          [ music_manager ]
/var/folders/ck/8npsd__n1ql0b7wlfp9r5w5h0000gn/T/_gbsbuild/obj/palette.rel
                                          [ palette ]
/var/folders/ck/8npsd__n1ql0b7wlfp9r5w5h0000gn/T/_gbsbuild/obj/parallax.rel
                                          [ parallax ]
/var/folders/ck/8npsd__n1ql0b7wlfp9r5w5h0000gn/T/_gbsbuild/obj/projectiles.rel
                                          [ projectiles ]
/var/folders/ck/8npsd__n1ql0b7wlfp9r5w5h0000gn/T/_gbsbuild/obj/scroll_a.rel
                                          [  ]
/var/folders/ck/8npsd__n1ql0b7wlfp9r5w5h0000gn/T/_gbsbuild/obj/scroll.rel
                                          [ scroll ]
/var/folders/ck/8npsd__n1ql0b7wlfp9r5w5h0000gn/T/_gbsbuild/obj/set_tile_submap.rel
                                          [  ]
/var/folders/ck/8npsd__n1ql0b7wlfp9r5w5h0000gn/T/_gbsbuild/obj/sfx_player.rel
                                          [ sfx_player ]
/var/folders/ck/8npsd__n1ql0b7wlfp9r5w5h0000gn/T/_gbsbuild/obj/sgb_border.rel
                                          [ sgb_border ]
/var/folders/ck/8npsd__n1ql0b7wlfp9r5w5h0000gn/T/_gbsbuild/obj/sio.rel
                                          [ sio ]
/var/folders/ck/8npsd__n1ql0b7wlfp9r5w5h0000gn/T/_gbsbuild/obj/states_caller.rel
                                          [  ]
/var/folders/ck/8npsd__n1ql0b7wlfp9r5w5h0000gn/T/_gbsbuild/obj/system.rel
                                          [ system ]
/var/folders/ck/8npsd__n1ql0b7wlfp9r5w5h0000gn/T/_gbsbuild/obj/trigger.rel
                                          [ trigger ]
/var/folders/ck/8npsd__n1ql0b7wlfp9r5w5h0000gn/T/_gbsbuild/obj/ui_a.rel
                                          [  ]
/var/folders/ck/8npsd__n1ql0b7wlfp9r5w5h0000gn/T/_gbsbuild/obj/ui.rel
                                          [ ui ]
/var/folders/ck/8npsd__n1ql0b7wlfp9r5w5h0000gn/T/_gbsbuild/obj/vm_actor.rel
                                          [ vm_actor ]
/var/folders/ck/8npsd__n1ql0b7wlfp9r5w5h0000gn/T/_gbsbuild/obj/vm_camera.rel
                                          [ vm_camera ]
/var/folders/ck/8npsd__n1ql0b7wlfp9r5w5h0000gn/T/_gbsbuild/obj/vm_gameboy.rel
                                          [ vm_gameboy ]
/var/folders/ck/8npsd__n1ql0b7wlfp9r5w5h0000gn/T/_gbsbuild/obj/vm_gbprinter.rel
                                          [ vm_gbprinter ]
/var/folders/ck/8npsd__n1ql0b7wlfp9r5w5h0000gn/T/_gbsbuild/obj/vm_instructions.rel
                                          [ vm_instructions ]
/var/folders/ck/8npsd__n1ql0b7wlfp9r5w5h0000gn/T/_gbsbuild/obj/vm_load_save.rel
                                          [ vm_load_save ]
/var/folders/ck/8npsd__n1ql0b7wlfp9r5w5h0000gn/T/_gbsbuild/obj/vm_math.rel
                                          [ vm_math ]
/var/folders/ck/8npsd__n1ql0b7wlfp9r5w5h0000gn/T/_gbsbuild/obj/vm_music.rel
                                          [ vm_music ]
/var/folders/ck/8npsd__n1ql0b7wlfp9r5w5h0000gn/T/_gbsbuild/obj/vm_palette.rel
                                          [ vm_palette ]
/var/folders/ck/8npsd__n1ql0b7wlfp9r5w5h0000gn/T/_gbsbuild/obj/vm_projectiles.rel
                                          [ vm_projectiles ]
/var/folders/ck/8npsd__n1ql0b7wlfp9r5w5h0000gn/T/_gbsbuild/obj/vm_rtc.rel
                                          [ vm_rtc ]
/var/folders/ck/8npsd__n1ql0b7wlfp9r5w5h0000gn/T/_gbsbuild/obj/vm_scene.rel
                                          [ vm_scene ]
/var/folders/ck/8npsd__n1ql0b7wlfp9r5w5h0000gn/T/_gbsbuild/obj/vm_sgb.rel
                                          [ vm_sgb ]
/var/folders/ck/8npsd__n1ql0b7wlfp9r5w5h0000gn/T/_gbsbuild/obj/vm_sio.rel
                                          [ vm_sio ]
/var/folders/ck/8npsd__n1ql0b7wlfp9r5w5h0000gn/T/_gbsbuild/obj/vm_ui_a.rel
                                          [ vm_ui_a ]
/var/folders/ck/8npsd__n1ql0b7wlfp9r5w5h0000gn/T/_gbsbuild/obj/vm_ui.rel
                                          [ vm_ui ]
/var/folders/ck/8npsd__n1ql0b7wlfp9r5w5h0000gn/T/_gbsbuild/obj/vm.rel
                                          [ vm ]
/var/folders/ck/8npsd__n1ql0b7wlfp9r5w5h0000gn/T/_gbsbuild/obj/actor_0_update.rel
                                          [ actor_0_update ]
/var/folders/ck/8npsd__n1ql0b7wlfp9r5w5h0000gn/T/_gbsbuild/obj/actor_1_update.rel
                                          [ actor_1_update ]
/var/folders/ck/8npsd__n1ql0b7wlfp9r5w5h0000gn/T/_gbsbuild/obj/actor_2_update.rel
                                          [ actor_2_update ]
/var/folders/ck/8npsd__n1ql0b7wlfp9r5w5h0000gn/T/_gbsbuild/obj/actor_20_interact.rel
                                          [ actor_20_interact ]
/var/folders/ck/8npsd__n1ql0b7wlfp9r5w5h0000gn/T/_gbsbuild/obj/actor_23_update.rel
                                          [ actor_23_update ]
/var/folders/ck/8npsd__n1ql0b7wlfp9r5w5h0000gn/T/_gbsbuild/obj/actor_24_interact.rel
                                          [ actor_24_interact ]
/var/folders/ck/8npsd__n1ql0b7wlfp9r5w5h0000gn/T/_gbsbuild/obj/actor_3_interact.rel
                                          [ actor_3_interact ]
/var/folders/ck/8npsd__n1ql0b7wlfp9r5w5h0000gn/T/_gbsbuild/obj/actor_3_update.rel
                                          [ actor_3_update ]
/var/folders/ck/8npsd__n1ql0b7wlfp9r5w5h0000gn/T/_gbsbuild/obj/actor_4_interact.rel
                                          [ actor_4_interact ]
/var/folders/ck/8npsd__n1ql0b7wlfp9r5w5h0000gn/T/_gbsbuild/obj/actor_4_update.rel
                                          [ actor_4_update ]
/var/folders/ck/8npsd__n1ql0b7wlfp9r5w5h0000gn/T/_gbsbuild/obj/actor_5_interact.rel
                                          [ actor_5_interact ]
/var/folders/ck/8npsd__n1ql0b7wlfp9r5w5h0000gn/T/_gbsbuild/obj/actor_7_update.rel
                                          [ actor_7_update ]
/var/folders/ck/8npsd__n1ql0b7wlfp9r5w5h0000gn/T/_gbsbuild/obj/actor_8_interact.rel
                                          [ actor_8_interact ]
/var/folders/ck/8npsd__n1ql0b7wlfp9r5w5h0000gn/T/_gbsbuild/obj/actor_8_update.rel
                                          [ actor_8_update ]
/var/folders/ck/8npsd__n1ql0b7wlfp9r5w5h0000gn/T/_gbsbuild/obj/avatar_font_0.rel
                                          [ avatar_font_0 ]
/var/folders/ck/8npsd__n1ql0b7wlfp9r5w5h0000gn/T/_gbsbuild/obj/bg_3d_hermano_tilemap_attr.rel
                                          [ bg_3d_hermano_tilemap_attr ]
/var/folders/ck/8npsd__n1ql0b7wlfp9r5w5h0000gn/T/_gbsbuild/obj/bg_3d_hermano_tilemap.rel
                                          [ bg_3d_hermano_tilemap ]
/var/folders/ck/8npsd__n1ql0b7wlfp9r5w5h0000gn/T/_gbsbuild/obj/bg_3d_hermano_tileset.rel
                                          [ bg_3d_hermano_tileset ]
/var/folders/ck/8npsd__n1ql0b7wlfp9r5w5h0000gn/T/_gbsbuild/obj/bg_3d_hermano.rel
                                          [ bg_3d_hermano ]
/var/folders/ck/8npsd__n1ql0b7wlfp9r5w5h0000gn/T/_gbsbuild/obj/bg_3d_hermano2_tilemap_attr.rel
                                          [ bg_3d_hermano2_tilemap_attr ]
/var/folders/ck/8npsd__n1ql0b7wlfp9r5w5h0000gn/T/_gbsbuild/obj/bg_3d_hermano2_tilemap.rel
                                          [ bg_3d_hermano2_tilemap ]
/var/folders/ck/8npsd__n1ql0b7wlfp9r5w5h0000gn/T/_gbsbuild/obj/bg_3d_hermano2_tileset.rel
                                          [ bg_3d_hermano2_tileset ]
/var/folders/ck/8npsd__n1ql0b7wlfp9r5w5h0000gn/T/_gbsbuild/obj/bg_3d_hermano2.rel
                                          [ bg_3d_hermano2 ]
/var/folders/ck/8npsd__n1ql0b7wlfp9r5w5h0000gn/T/_gbsbuild/obj/bg_3d_pig_tilemap_attr.rel
                                          [ bg_3d_pig_tilemap_attr ]
/var/folders/ck/8npsd__n1ql0b7wlfp9r5w5h0000gn/T/_gbsbuild/obj/bg_3d_pig_tilemap.rel
                                          [ bg_3d_pig_tilemap ]
/var/folders/ck/8npsd__n1ql0b7wlfp9r5w5h0000gn/T/_gbsbuild/obj/bg_3d_pig_tileset.rel
                                          [ bg_3d_pig_tileset ]
/var/folders/ck/8npsd__n1ql0b7wlfp9r5w5h0000gn/T/_gbsbuild/obj/bg_3d_pig.rel
                                          [ bg_3d_pig ]
/var/folders/ck/8npsd__n1ql0b7wlfp9r5w5h0000gn/T/_gbsbuild/obj/bg_3d_rabbit_tilemap_attr.rel
                                          [ bg_3d_rabbit_tilemap_attr ]
/var/folders/ck/8npsd__n1ql0b7wlfp9r5w5h0000gn/T/_gbsbuild/obj/bg_3d_rabbit_tilemap.rel
                                          [ bg_3d_rabbit_tilemap ]
/var/folders/ck/8npsd__n1ql0b7wlfp9r5w5h0000gn/T/_gbsbuild/obj/bg_3d_rabbit_tileset.rel
                                          [ bg_3d_rabbit_tileset ]
/var/folders/ck/8npsd__n1ql0b7wlfp9r5w5h0000gn/T/_gbsbuild/obj/bg_3d_rabbit.rel
                                          [ bg_3d_rabbit ]
/var/folders/ck/8npsd__n1ql0b7wlfp9r5w5h0000gn/T/_gbsbuild/obj/bg_3d_warangka_tilemap_attr.rel
                                          [ bg_3d_warangka_tilemap_attr ]
/var/folders/ck/8npsd__n1ql0b7wlfp9r5w5h0000gn/T/_gbsbuild/obj/bg_3d_warangka_tilemap.rel
                                          [ bg_3d_warangka_tilemap ]
/var/folders/ck/8npsd__n1ql0b7wlfp9r5w5h0000gn/T/_gbsbuild/obj/bg_3d_warangka_tileset.rel
                                          [ bg_3d_warangka_tileset ]
/var/folders/ck/8npsd__n1ql0b7wlfp9r5w5h0000gn/T/_gbsbuild/obj/bg_3d_warangka.rel
                                          [ bg_3d_warangka ]
/var/folders/ck/8npsd__n1ql0b7wlfp9r5w5h0000gn/T/_gbsbuild/obj/bg_3d_waraya_tilemap_attr.rel
                                          [ bg_3d_waraya_tilemap_attr ]
/var/folders/ck/8npsd__n1ql0b7wlfp9r5w5h0000gn/T/_gbsbuild/obj/bg_3d_waraya_tilemap.rel
                                          [ bg_3d_waraya_tilemap ]
/var/folders/ck/8npsd__n1ql0b7wlfp9r5w5h0000gn/T/_gbsbuild/obj/bg_3d_waraya_tileset.rel
                                          [ bg_3d_waraya_tileset ]
/var/folders/ck/8npsd__n1ql0b7wlfp9r5w5h0000gn/T/_gbsbuild/obj/bg_3d_waraya.rel
                                          [ bg_3d_waraya ]
/var/folders/ck/8npsd__n1ql0b7wlfp9r5w5h0000gn/T/_gbsbuild/obj/bg_cave_tilemap_attr.rel
                                          [ bg_cave_tilemap_attr ]
/var/folders/ck/8npsd__n1ql0b7wlfp9r5w5h0000gn/T/_gbsbuild/obj/bg_cave_tilemap.rel
                                          [ bg_cave_tilemap ]
/var/folders/ck/8npsd__n1ql0b7wlfp9r5w5h0000gn/T/_gbsbuild/obj/bg_cave_tileset.rel
                                          [ bg_cave_tileset ]
/var/folders/ck/8npsd__n1ql0b7wlfp9r5w5h0000gn/T/_gbsbuild/obj/bg_cave.rel
                                          [ bg_cave ]
/var/folders/ck/8npsd__n1ql0b7wlfp9r5w5h0000gn/T/_gbsbuild/obj/bg_credits_tilemap_attr.rel
                                          [ bg_credits_tilemap_attr ]
/var/folders/ck/8npsd__n1ql0b7wlfp9r5w5h0000gn/T/_gbsbuild/obj/bg_credits_tilemap.rel
                                          [ bg_credits_tilemap ]
/var/folders/ck/8npsd__n1ql0b7wlfp9r5w5h0000gn/T/_gbsbuild/obj/bg_credits_tileset.rel
                                          [ bg_credits_tileset ]
/var/folders/ck/8npsd__n1ql0b7wlfp9r5w5h0000gn/T/_gbsbuild/obj/bg_credits.rel
                                          [ bg_credits ]
/var/folders/ck/8npsd__n1ql0b7wlfp9r5w5h0000gn/T/_gbsbuild/obj/bg_ending_1_tilemap_attr.rel
                                          [ bg_ending_1_tilemap_attr ]
/var/folders/ck/8npsd__n1ql0b7wlfp9r5w5h0000gn/T/_gbsbuild/obj/bg_ending_1_tilemap.rel
                                          [ bg_ending_1_tilemap ]
/var/folders/ck/8npsd__n1ql0b7wlfp9r5w5h0000gn/T/_gbsbuild/obj/bg_ending_1_tileset.rel
                                          [ bg_ending_1_tileset ]
/var/folders/ck/8npsd__n1ql0b7wlfp9r5w5h0000gn/T/_gbsbuild/obj/bg_ending_1.rel
                                          [ bg_ending_1 ]
/var/folders/ck/8npsd__n1ql0b7wlfp9r5w5h0000gn/T/_gbsbuild/obj/bg_ending_2a_tilemap_attr.rel
                                          [ bg_ending_2a_tilemap_attr ]
/var/folders/ck/8npsd__n1ql0b7wlfp9r5w5h0000gn/T/_gbsbuild/obj/bg_ending_2a_tilemap.rel
                                          [ bg_ending_2a_tilemap ]
/var/folders/ck/8npsd__n1ql0b7wlfp9r5w5h0000gn/T/_gbsbuild/obj/bg_ending_2a_tileset.rel
                                          [ bg_ending_2a_tileset ]
/var/folders/ck/8npsd__n1ql0b7wlfp9r5w5h0000gn/T/_gbsbuild/obj/bg_ending_2a.rel
                                          [ bg_ending_2a ]
/var/folders/ck/8npsd__n1ql0b7wlfp9r5w5h0000gn/T/_gbsbuild/obj/bg_ending_2b_tilemap_attr.rel
                                          [ bg_ending_2b_tilemap_attr ]
/var/folders/ck/8npsd__n1ql0b7wlfp9r5w5h0000gn/T/_gbsbuild/obj/bg_ending_2b_tilemap.rel
                                          [ bg_ending_2b_tilemap ]
/var/folders/ck/8npsd__n1ql0b7wlfp9r5w5h0000gn/T/_gbsbuild/obj/bg_ending_2b_tileset.rel
                                          [ bg_ending_2b_tileset ]
/var/folders/ck/8npsd__n1ql0b7wlfp9r5w5h0000gn/T/_gbsbuild/obj/bg_ending_2b.rel
                                          [ bg_ending_2b ]
/var/folders/ck/8npsd__n1ql0b7wlfp9r5w5h0000gn/T/_gbsbuild/obj/bg_ending_3_tilemap_attr.rel
                                          [ bg_ending_3_tilemap_attr ]
/var/folders/ck/8npsd__n1ql0b7wlfp9r5w5h0000gn/T/_gbsbuild/obj/bg_ending_3_tilemap.rel
                                          [ bg_ending_3_tilemap ]
/var/folders/ck/8npsd__n1ql0b7wlfp9r5w5h0000gn/T/_gbsbuild/obj/bg_ending_3_tileset.rel
                                          [ bg_ending_3_tileset ]
/var/folders/ck/8npsd__n1ql0b7wlfp9r5w5h0000gn/T/_gbsbuild/obj/bg_ending_3.rel
                                          [ bg_ending_3 ]
/var/folders/ck/8npsd__n1ql0b7wlfp9r5w5h0000gn/T/_gbsbuild/obj/bg_ending_4a_tilemap_attr.rel
                                          [ bg_ending_4a_tilemap_attr ]
/var/folders/ck/8npsd__n1ql0b7wlfp9r5w5h0000gn/T/_gbsbuild/obj/bg_ending_4a_tilemap.rel
                                          [ bg_ending_4a_tilemap ]
/var/folders/ck/8npsd__n1ql0b7wlfp9r5w5h0000gn/T/_gbsbuild/obj/bg_ending_4a_tileset.rel
                                          [ bg_ending_4a_tileset ]
/var/folders/ck/8npsd__n1ql0b7wlfp9r5w5h0000gn/T/_gbsbuild/obj/bg_ending_4a.rel
                                          [ bg_ending_4a ]
/var/folders/ck/8npsd__n1ql0b7wlfp9r5w5h0000gn/T/_gbsbuild/obj/bg_ending_4b_tilemap_attr.rel
                                          [ bg_ending_4b_tilemap_attr ]
/var/folders/ck/8npsd__n1ql0b7wlfp9r5w5h0000gn/T/_gbsbuild/obj/bg_ending_4b_tilemap.rel
                                          [ bg_ending_4b_tilemap ]
/var/folders/ck/8npsd__n1ql0b7wlfp9r5w5h0000gn/T/_gbsbuild/obj/bg_ending_4b_tileset.rel
                                          [ bg_ending_4b_tileset ]
/var/folders/ck/8npsd__n1ql0b7wlfp9r5w5h0000gn/T/_gbsbuild/obj/bg_ending_4b.rel
                                          [ bg_ending_4b ]
/var/folders/ck/8npsd__n1ql0b7wlfp9r5w5h0000gn/T/_gbsbuild/obj/bg_ending_5a_tilemap_attr.rel
                                          [ bg_ending_5a_tilemap_attr ]
/var/folders/ck/8npsd__n1ql0b7wlfp9r5w5h0000gn/T/_gbsbuild/obj/bg_ending_5a_tilemap.rel
                                          [ bg_ending_5a_tilemap ]
/var/folders/ck/8npsd__n1ql0b7wlfp9r5w5h0000gn/T/_gbsbuild/obj/bg_ending_5a_tileset.rel
                                          [ bg_ending_5a_tileset ]
/var/folders/ck/8npsd__n1ql0b7wlfp9r5w5h0000gn/T/_gbsbuild/obj/bg_ending_5a.rel
                                          [ bg_ending_5a ]
/var/folders/ck/8npsd__n1ql0b7wlfp9r5w5h0000gn/T/_gbsbuild/obj/bg_ending_5b_tilemap_attr.rel
                                          [ bg_ending_5b_tilemap_attr ]
/var/folders/ck/8npsd__n1ql0b7wlfp9r5w5h0000gn/T/_gbsbuild/obj/bg_ending_5b_tilemap.rel
                                          [ bg_ending_5b_tilemap ]
/var/folders/ck/8npsd__n1ql0b7wlfp9r5w5h0000gn/T/_gbsbuild/obj/bg_ending_5b_tileset.rel
                                          [ bg_ending_5b_tileset ]
/var/folders/ck/8npsd__n1ql0b7wlfp9r5w5h0000gn/T/_gbsbuild/obj/bg_ending_5b.rel
                                          [ bg_ending_5b ]
/var/folders/ck/8npsd__n1ql0b7wlfp9r5w5h0000gn/T/_gbsbuild/obj/bg_ending_6_tilemap_attr.rel
                                          [ bg_ending_6_tilemap_attr ]
/var/folders/ck/8npsd__n1ql0b7wlfp9r5w5h0000gn/T/_gbsbuild/obj/bg_ending_6_tilemap.rel
                                          [ bg_ending_6_tilemap ]
/var/folders/ck/8npsd__n1ql0b7wlfp9r5w5h0000gn/T/_gbsbuild/obj/bg_ending_6_tileset.rel
                                          [ bg_ending_6_tileset ]
/var/folders/ck/8npsd__n1ql0b7wlfp9r5w5h0000gn/T/_gbsbuild/obj/bg_ending_6.rel
                                          [ bg_ending_6 ]
/var/folders/ck/8npsd__n1ql0b7wlfp9r5w5h0000gn/T/_gbsbuild/obj/bg_game_over_tilemap_attr.rel
                                          [ bg_game_over_tilemap_attr ]
/var/folders/ck/8npsd__n1ql0b7wlfp9r5w5h0000gn/T/_gbsbuild/obj/bg_game_over_tilemap.rel
                                          [ bg_game_over_tilemap ]
/var/folders/ck/8npsd__n1ql0b7wlfp9r5w5h0000gn/T/_gbsbuild/obj/bg_game_over_tileset.rel
                                          [ bg_game_over_tileset ]
/var/folders/ck/8npsd__n1ql0b7wlfp9r5w5h0000gn/T/_gbsbuild/obj/bg_game_over.rel
                                          [ bg_game_over ]
/var/folders/ck/8npsd__n1ql0b7wlfp9r5w5h0000gn/T/_gbsbuild/obj/bg_outside_tilemap_attr.rel
                                          [ bg_outside_tilemap_attr ]
/var/folders/ck/8npsd__n1ql0b7wlfp9r5w5h0000gn/T/_gbsbuild/obj/bg_outside_tilemap.rel
                                          [ bg_outside_tilemap ]
/var/folders/ck/8npsd__n1ql0b7wlfp9r5w5h0000gn/T/_gbsbuild/obj/bg_outside_tileset.rel
                                          [ bg_outside_tileset ]
/var/folders/ck/8npsd__n1ql0b7wlfp9r5w5h0000gn/T/_gbsbuild/obj/bg_outside.rel
                                          [ bg_outside ]
/var/folders/ck/8npsd__n1ql0b7wlfp9r5w5h0000gn/T/_gbsbuild/obj/cursor_image.rel
                                          [ cursor_image ]
/var/folders/ck/8npsd__n1ql0b7wlfp9r5w5h0000gn/T/_gbsbuild/obj/emote_question.rel
                                          [ emote_question ]
/var/folders/ck/8npsd__n1ql0b7wlfp9r5w5h0000gn/T/_gbsbuild/obj/emote_shock.rel
                                          [ emote_shock ]
/var/folders/ck/8npsd__n1ql0b7wlfp9r5w5h0000gn/T/_gbsbuild/obj/font_gbs_mono.rel
                                          [ font_gbs_mono ]
/var/folders/ck/8npsd__n1ql0b7wlfp9r5w5h0000gn/T/_gbsbuild/obj/frame_image.rel
                                          [ frame_image ]
/var/folders/ck/8npsd__n1ql0b7wlfp9r5w5h0000gn/T/_gbsbuild/obj/game_signature.rel
                                          [ game_signature ]
/var/folders/ck/8npsd__n1ql0b7wlfp9r5w5h0000gn/T/_gbsbuild/obj/song_song_template_2_Data.rel
                                          [ song_song_template_2_Data ]
/var/folders/ck/8npsd__n1ql0b7wlfp9r5w5h0000gn/T/_gbsbuild/obj/song_template_0_Data.rel
                                          [ song_template_0_Data ]
/var/folders/ck/8npsd__n1ql0b7wlfp9r5w5h0000gn/T/_gbsbuild/obj/palette_0.rel
                                          [ palette_0 ]
/var/folders/ck/8npsd__n1ql0b7wlfp9r5w5h0000gn/T/_gbsbuild/obj/palette_1.rel
                                          [ palette_1 ]
/var/folders/ck/8npsd__n1ql0b7wlfp9r5w5h0000gn/T/_gbsbuild/obj/palette_10.rel
                                          [ palette_10 ]
/var/folders/ck/8npsd__n1ql0b7wlfp9r5w5h0000gn/T/_gbsbuild/obj/palette_11.rel
                                          [ palette_11 ]
/var/folders/ck/8npsd__n1ql0b7wlfp9r5w5h0000gn/T/_gbsbuild/obj/palette_12.rel
                                          [ palette_12 ]
/var/folders/ck/8npsd__n1ql0b7wlfp9r5w5h0000gn/T/_gbsbuild/obj/palette_13.rel
                                          [ palette_13 ]
/var/folders/ck/8npsd__n1ql0b7wlfp9r5w5h0000gn/T/_gbsbuild/obj/palette_14.rel
                                          [ palette_14 ]
/var/folders/ck/8npsd__n1ql0b7wlfp9r5w5h0000gn/T/_gbsbuild/obj/palette_15.rel
                                          [ palette_15 ]
/var/folders/ck/8npsd__n1ql0b7wlfp9r5w5h0000gn/T/_gbsbuild/obj/palette_16.rel
                                          [ palette_16 ]
/var/folders/ck/8npsd__n1ql0b7wlfp9r5w5h0000gn/T/_gbsbuild/obj/palette_17.rel
                                          [ palette_17 ]
/var/folders/ck/8npsd__n1ql0b7wlfp9r5w5h0000gn/T/_gbsbuild/obj/palette_18.rel
                                          [ palette_18 ]
/var/folders/ck/8npsd__n1ql0b7wlfp9r5w5h0000gn/T/_gbsbuild/obj/palette_19.rel
                                          [ palette_19 ]
/var/folders/ck/8npsd__n1ql0b7wlfp9r5w5h0000gn/T/_gbsbuild/obj/palette_2.rel
                                          [ palette_2 ]
/var/folders/ck/8npsd__n1ql0b7wlfp9r5w5h0000gn/T/_gbsbuild/obj/palette_20.rel
                                          [ palette_20 ]
/var/folders/ck/8npsd__n1ql0b7wlfp9r5w5h0000gn/T/_gbsbuild/obj/palette_21.rel
                                          [ palette_21 ]
/var/folders/ck/8npsd__n1ql0b7wlfp9r5w5h0000gn/T/_gbsbuild/obj/palette_22.rel
                                          [ palette_22 ]
/var/folders/ck/8npsd__n1ql0b7wlfp9r5w5h0000gn/T/_gbsbuild/obj/palette_23.rel
                                          [ palette_23 ]
/var/folders/ck/8npsd__n1ql0b7wlfp9r5w5h0000gn/T/_gbsbuild/obj/palette_24.rel
                                          [ palette_24 ]
/var/folders/ck/8npsd__n1ql0b7wlfp9r5w5h0000gn/T/_gbsbuild/obj/palette_25.rel
                                          [ palette_25 ]
/var/folders/ck/8npsd__n1ql0b7wlfp9r5w5h0000gn/T/_gbsbuild/obj/palette_26.rel
                                          [ palette_26 ]
/var/folders/ck/8npsd__n1ql0b7wlfp9r5w5h0000gn/T/_gbsbuild/obj/palette_3.rel
                                          [ palette_3 ]
/var/folders/ck/8npsd__n1ql0b7wlfp9r5w5h0000gn/T/_gbsbuild/obj/palette_4.rel
                                          [ palette_4 ]
/var/folders/ck/8npsd__n1ql0b7wlfp9r5w5h0000gn/T/_gbsbuild/obj/palette_5.rel
                                          [ palette_5 ]
/var/folders/ck/8npsd__n1ql0b7wlfp9r5w5h0000gn/T/_gbsbuild/obj/palette_6.rel
                                          [ palette_6 ]
/var/folders/ck/8npsd__n1ql0b7wlfp9r5w5h0000gn/T/_gbsbuild/obj/palette_7.rel
                                          [ palette_7 ]
/var/folders/ck/8npsd__n1ql0b7wlfp9r5w5h0000gn/T/_gbsbuild/obj/palette_8.rel
                                          [ palette_8 ]
/var/folders/ck/8npsd__n1ql0b7wlfp9r5w5h0000gn/T/_gbsbuild/obj/palette_9.rel
                                          [ palette_9 ]
/var/folders/ck/8npsd__n1ql0b7wlfp9r5w5h0000gn/T/_gbsbuild/obj/scene_0_actors.rel
                                          [ scene_0_actors ]
/var/folders/ck/8npsd__n1ql0b7wlfp9r5w5h0000gn/T/_gbsbuild/obj/scene_0_collisions.rel
                                          [ scene_0_collisions ]
/var/folders/ck/8npsd__n1ql0b7wlfp9r5w5h0000gn/T/_gbsbuild/obj/scene_0_init.rel
                                          [ scene_0_init ]
/var/folders/ck/8npsd__n1ql0b7wlfp9r5w5h0000gn/T/_gbsbuild/obj/scene_0_sprites.rel
                                          [ scene_0_sprites ]
/var/folders/ck/8npsd__n1ql0b7wlfp9r5w5h0000gn/T/_gbsbuild/obj/scene_0_triggers.rel
                                          [ scene_0_triggers ]
/var/folders/ck/8npsd__n1ql0b7wlfp9r5w5h0000gn/T/_gbsbuild/obj/scene_0.rel
                                          [ scene_0 ]
/var/folders/ck/8npsd__n1ql0b7wlfp9r5w5h0000gn/T/_gbsbuild/obj/scene_1_actors.rel
                                          [ scene_1_actors ]
/var/folders/ck/8npsd__n1ql0b7wlfp9r5w5h0000gn/T/_gbsbuild/obj/scene_1_collisions.rel
                                          [ scene_1_collisions ]
/var/folders/ck/8npsd__n1ql0b7wlfp9r5w5h0000gn/T/_gbsbuild/obj/scene_1_init.rel
                                          [ scene_1_init ]
/var/folders/ck/8npsd__n1ql0b7wlfp9r5w5h0000gn/T/_gbsbuild/obj/scene_1_sprites.rel
                                          [ scene_1_sprites ]
/var/folders/ck/8npsd__n1ql0b7wlfp9r5w5h0000gn/T/_gbsbuild/obj/scene_1.rel
                                          [ scene_1 ]
/var/folders/ck/8npsd__n1ql0b7wlfp9r5w5h0000gn/T/_gbsbuild/obj/scene_10_actors.rel
                                          [ scene_10_actors ]
/var/folders/ck/8npsd__n1ql0b7wlfp9r5w5h0000gn/T/_gbsbuild/obj/scene_10_collisions.rel
                                          [ scene_10_collisions ]
/var/folders/ck/8npsd__n1ql0b7wlfp9r5w5h0000gn/T/_gbsbuild/obj/scene_10_init.rel
                                          [ scene_10_init ]
/var/folders/ck/8npsd__n1ql0b7wlfp9r5w5h0000gn/T/_gbsbuild/obj/scene_10_sprites.rel
                                          [ scene_10_sprites ]
/var/folders/ck/8npsd__n1ql0b7wlfp9r5w5h0000gn/T/_gbsbuild/obj/scene_10.rel
                                          [ scene_10 ]
/var/folders/ck/8npsd__n1ql0b7wlfp9r5w5h0000gn/T/_gbsbuild/obj/scene_11_actors.rel
                                          [ scene_11_actors ]
/var/folders/ck/8npsd__n1ql0b7wlfp9r5w5h0000gn/T/_gbsbuild/obj/scene_11_collisions.rel
                                          [ scene_11_collisions ]
/var/folders/ck/8npsd__n1ql0b7wlfp9r5w5h0000gn/T/_gbsbuild/obj/scene_11_init.rel
                                          [ scene_11_init ]
/var/folders/ck/8npsd__n1ql0b7wlfp9r5w5h0000gn/T/_gbsbuild/obj/scene_11_sprites.rel
                                          [ scene_11_sprites ]
/var/folders/ck/8npsd__n1ql0b7wlfp9r5w5h0000gn/T/_gbsbuild/obj/scene_11.rel
                                          [ scene_11 ]
/var/folders/ck/8npsd__n1ql0b7wlfp9r5w5h0000gn/T/_gbsbuild/obj/scene_12_actors.rel
                                          [ scene_12_actors ]
/var/folders/ck/8npsd__n1ql0b7wlfp9r5w5h0000gn/T/_gbsbuild/obj/scene_12_collisions.rel
                                          [ scene_12_collisions ]
/var/folders/ck/8npsd__n1ql0b7wlfp9r5w5h0000gn/T/_gbsbuild/obj/scene_12_init.rel
                                          [ scene_12_init ]
/var/folders/ck/8npsd__n1ql0b7wlfp9r5w5h0000gn/T/_gbsbuild/obj/scene_12_sprites.rel
                                          [ scene_12_sprites ]
/var/folders/ck/8npsd__n1ql0b7wlfp9r5w5h0000gn/T/_gbsbuild/obj/scene_12.rel
                                          [ scene_12 ]
/var/folders/ck/8npsd__n1ql0b7wlfp9r5w5h0000gn/T/_gbsbuild/obj/scene_13_actors.rel
                                          [ scene_13_actors ]
/var/folders/ck/8npsd__n1ql0b7wlfp9r5w5h0000gn/T/_gbsbuild/obj/scene_13_collisions.rel
                                          [ scene_13_collisions ]
/var/folders/ck/8npsd__n1ql0b7wlfp9r5w5h0000gn/T/_gbsbuild/obj/scene_13_init.rel
                                          [ scene_13_init ]
/var/folders/ck/8npsd__n1ql0b7wlfp9r5w5h0000gn/T/_gbsbuild/obj/scene_13_sprites.rel
                                          [ scene_13_sprites ]
/var/folders/ck/8npsd__n1ql0b7wlfp9r5w5h0000gn/T/_gbsbuild/obj/scene_13.rel
                                          [ scene_13 ]
/var/folders/ck/8npsd__n1ql0b7wlfp9r5w5h0000gn/T/_gbsbuild/obj/scene_14_collisions.rel
                                          [ scene_14_collisions ]
/var/folders/ck/8npsd__n1ql0b7wlfp9r5w5h0000gn/T/_gbsbuild/obj/scene_14_init.rel
                                          [ scene_14_init ]
/var/folders/ck/8npsd__n1ql0b7wlfp9r5w5h0000gn/T/_gbsbuild/obj/scene_14.rel
                                          [ scene_14 ]
/var/folders/ck/8npsd__n1ql0b7wlfp9r5w5h0000gn/T/_gbsbuild/obj/scene_16_collisions.rel
                                          [ scene_16_collisions ]
/var/folders/ck/8npsd__n1ql0b7wlfp9r5w5h0000gn/T/_gbsbuild/obj/scene_16_init.rel
                                          [ scene_16_init ]
/var/folders/ck/8npsd__n1ql0b7wlfp9r5w5h0000gn/T/_gbsbuild/obj/scene_16.rel
                                          [ scene_16 ]
/var/folders/ck/8npsd__n1ql0b7wlfp9r5w5h0000gn/T/_gbsbuild/obj/scene_17_collisions.rel
                                          [ scene_17_collisions ]
/var/folders/ck/8npsd__n1ql0b7wlfp9r5w5h0000gn/T/_gbsbuild/obj/scene_17_init.rel
                                          [ scene_17_init ]
/var/folders/ck/8npsd__n1ql0b7wlfp9r5w5h0000gn/T/_gbsbuild/obj/scene_17.rel
                                          [ scene_17 ]
/var/folders/ck/8npsd__n1ql0b7wlfp9r5w5h0000gn/T/_gbsbuild/obj/scene_18_collisions.rel
                                          [ scene_18_collisions ]
/var/folders/ck/8npsd__n1ql0b7wlfp9r5w5h0000gn/T/_gbsbuild/obj/scene_18_init.rel
                                          [ scene_18_init ]
/var/folders/ck/8npsd__n1ql0b7wlfp9r5w5h0000gn/T/_gbsbuild/obj/scene_18.rel
                                          [ scene_18 ]
/var/folders/ck/8npsd__n1ql0b7wlfp9r5w5h0000gn/T/_gbsbuild/obj/scene_19_collisions.rel
                                          [ scene_19_collisions ]
/var/folders/ck/8npsd__n1ql0b7wlfp9r5w5h0000gn/T/_gbsbuild/obj/scene_19_init.rel
                                          [ scene_19_init ]
/var/folders/ck/8npsd__n1ql0b7wlfp9r5w5h0000gn/T/_gbsbuild/obj/scene_19.rel
                                          [ scene_19 ]
/var/folders/ck/8npsd__n1ql0b7wlfp9r5w5h0000gn/T/_gbsbuild/obj/scene_2_collisions.rel
                                          [ scene_2_collisions ]
/var/folders/ck/8npsd__n1ql0b7wlfp9r5w5h0000gn/T/_gbsbuild/obj/scene_2_init.rel
                                          [ scene_2_init ]
/var/folders/ck/8npsd__n1ql0b7wlfp9r5w5h0000gn/T/_gbsbuild/obj/scene_2.rel
                                          [ scene_2 ]
/var/folders/ck/8npsd__n1ql0b7wlfp9r5w5h0000gn/T/_gbsbuild/obj/scene_20_collisions.rel
                                          [ scene_20_collisions ]
/var/folders/ck/8npsd__n1ql0b7wlfp9r5w5h0000gn/T/_gbsbuild/obj/scene_20_init.rel
                                          [ scene_20_init ]
/var/folders/ck/8npsd__n1ql0b7wlfp9r5w5h0000gn/T/_gbsbuild/obj/scene_20.rel
                                          [ scene_20 ]
/var/folders/ck/8npsd__n1ql0b7wlfp9r5w5h0000gn/T/_gbsbuild/obj/scene_21_collisions.rel
                                          [ scene_21_collisions ]
/var/folders/ck/8npsd__n1ql0b7wlfp9r5w5h0000gn/T/_gbsbuild/obj/scene_21_init.rel
                                          [ scene_21_init ]
/var/folders/ck/8npsd__n1ql0b7wlfp9r5w5h0000gn/T/_gbsbuild/obj/scene_21.rel
                                          [ scene_21 ]
/var/folders/ck/8npsd__n1ql0b7wlfp9r5w5h0000gn/T/_gbsbuild/obj/scene_22_collisions.rel
                                          [ scene_22_collisions ]
/var/folders/ck/8npsd__n1ql0b7wlfp9r5w5h0000gn/T/_gbsbuild/obj/scene_22_init.rel
                                          [ scene_22_init ]
/var/folders/ck/8npsd__n1ql0b7wlfp9r5w5h0000gn/T/_gbsbuild/obj/scene_22.rel
                                          [ scene_22 ]
/var/folders/ck/8npsd__n1ql0b7wlfp9r5w5h0000gn/T/_gbsbuild/obj/scene_23_collisions.rel
                                          [ scene_23_collisions ]
/var/folders/ck/8npsd__n1ql0b7wlfp9r5w5h0000gn/T/_gbsbuild/obj/scene_23_init.rel
                                          [ scene_23_init ]
/var/folders/ck/8npsd__n1ql0b7wlfp9r5w5h0000gn/T/_gbsbuild/obj/scene_23.rel
                                          [ scene_23 ]
/var/folders/ck/8npsd__n1ql0b7wlfp9r5w5h0000gn/T/_gbsbuild/obj/scene_24_collisions.rel
                                          [ scene_24_collisions ]
/var/folders/ck/8npsd__n1ql0b7wlfp9r5w5h0000gn/T/_gbsbuild/obj/scene_24_init.rel
                                          [ scene_24_init ]
/var/folders/ck/8npsd__n1ql0b7wlfp9r5w5h0000gn/T/_gbsbuild/obj/scene_24.rel
                                          [ scene_24 ]
/var/folders/ck/8npsd__n1ql0b7wlfp9r5w5h0000gn/T/_gbsbuild/obj/scene_3_collisions.rel
                                          [ scene_3_collisions ]
/var/folders/ck/8npsd__n1ql0b7wlfp9r5w5h0000gn/T/_gbsbuild/obj/scene_3_init.rel
                                          [ scene_3_init ]
/var/folders/ck/8npsd__n1ql0b7wlfp9r5w5h0000gn/T/_gbsbuild/obj/scene_3.rel
                                          [ scene_3 ]
/var/folders/ck/8npsd__n1ql0b7wlfp9r5w5h0000gn/T/_gbsbuild/obj/scene_4_collisions.rel
                                          [ scene_4_collisions ]
/var/folders/ck/8npsd__n1ql0b7wlfp9r5w5h0000gn/T/_gbsbuild/obj/scene_4_init.rel
                                          [ scene_4_init ]
/var/folders/ck/8npsd__n1ql0b7wlfp9r5w5h0000gn/T/_gbsbuild/obj/scene_4.rel
                                          [ scene_4 ]
/var/folders/ck/8npsd__n1ql0b7wlfp9r5w5h0000gn/T/_gbsbuild/obj/scene_5_collisions.rel
                                          [ scene_5_collisions ]
/var/folders/ck/8npsd__n1ql0b7wlfp9r5w5h0000gn/T/_gbsbuild/obj/scene_5_init.rel
                                          [ scene_5_init ]
/var/folders/ck/8npsd__n1ql0b7wlfp9r5w5h0000gn/T/_gbsbuild/obj/scene_5.rel
                                          [ scene_5 ]
/var/folders/ck/8npsd__n1ql0b7wlfp9r5w5h0000gn/T/_gbsbuild/obj/scene_9_actors.rel
                                          [ scene_9_actors ]
/var/folders/ck/8npsd__n1ql0b7wlfp9r5w5h0000gn/T/_gbsbuild/obj/scene_9_collisions.rel
                                          [ scene_9_collisions ]
/var/folders/ck/8npsd__n1ql0b7wlfp9r5w5h0000gn/T/_gbsbuild/obj/scene_9_init.rel
                                          [ scene_9_init ]
/var/folders/ck/8npsd__n1ql0b7wlfp9r5w5h0000gn/T/_gbsbuild/obj/scene_9_sprites.rel
                                          [ scene_9_sprites ]
/var/folders/ck/8npsd__n1ql0b7wlfp9r5w5h0000gn/T/_gbsbuild/obj/scene_9.rel
                                          [ scene_9 ]
/var/folders/ck/8npsd__n1ql0b7wlfp9r5w5h0000gn/T/_gbsbuild/obj/scene_outside_actors.rel
                                          [ scene_outside_actors ]
/var/folders/ck/8npsd__n1ql0b7wlfp9r5w5h0000gn/T/_gbsbuild/obj/scene_outside_collisions.rel
                                          [ scene_outside_collisions ]
/var/folders/ck/8npsd__n1ql0b7wlfp9r5w5h0000gn/T/_gbsbuild/obj/scene_outside_init.rel
                                          [ scene_outside_init ]
/var/folders/ck/8npsd__n1ql0b7wlfp9r5w5h0000gn/T/_gbsbuild/obj/scene_outside_sprites.rel
                                          [ scene_outside_sprites ]
/var/folders/ck/8npsd__n1ql0b7wlfp9r5w5h0000gn/T/_gbsbuild/obj/scene_outside_triggers.rel
                                          [ scene_outside_triggers ]
/var/folders/ck/8npsd__n1ql0b7wlfp9r5w5h0000gn/T/_gbsbuild/obj/scene_outside.rel
                                          [ scene_outside ]
/var/folders/ck/8npsd__n1ql0b7wlfp9r5w5h0000gn/T/_gbsbuild/obj/scene_title_screen_collisions.rel
                                          [ scene_title_screen_collisions ]
/var/folders/ck/8npsd__n1ql0b7wlfp9r5w5h0000gn/T/_gbsbuild/obj/scene_title_screen_init.rel
                                          [ scene_title_screen_init ]
/var/folders/ck/8npsd__n1ql0b7wlfp9r5w5h0000gn/T/_gbsbuild/obj/scene_title_screen.rel
                                          [ scene_title_screen ]
/var/folders/ck/8npsd__n1ql0b7wlfp9r5w5h0000gn/T/_gbsbuild/obj/script_10.rel
                                          [ script_10 ]
/var/folders/ck/8npsd__n1ql0b7wlfp9r5w5h0000gn/T/_gbsbuild/obj/script_11.rel
                                          [ script_11 ]
/var/folders/ck/8npsd__n1ql0b7wlfp9r5w5h0000gn/T/_gbsbuild/obj/script_12.rel
                                          [ script_12 ]
/var/folders/ck/8npsd__n1ql0b7wlfp9r5w5h0000gn/T/_gbsbuild/obj/script_13.rel
                                          [ script_13 ]
/var/folders/ck/8npsd__n1ql0b7wlfp9r5w5h0000gn/T/_gbsbuild/obj/script_14.rel
                                          [ script_14 ]
/var/folders/ck/8npsd__n1ql0b7wlfp9r5w5h0000gn/T/_gbsbuild/obj/script_15.rel
                                          [ script_15 ]
/var/folders/ck/8npsd__n1ql0b7wlfp9r5w5h0000gn/T/_gbsbuild/obj/script_16.rel
                                          [ script_16 ]
/var/folders/ck/8npsd__n1ql0b7wlfp9r5w5h0000gn/T/_gbsbuild/obj/script_17.rel
                                          [ script_17 ]
/var/folders/ck/8npsd__n1ql0b7wlfp9r5w5h0000gn/T/_gbsbuild/obj/script_18.rel
                                          [ script_18 ]
/var/folders/ck/8npsd__n1ql0b7wlfp9r5w5h0000gn/T/_gbsbuild/obj/script_2.rel
                                          [ script_2 ]
/var/folders/ck/8npsd__n1ql0b7wlfp9r5w5h0000gn/T/_gbsbuild/obj/script_20.rel
                                          [ script_20 ]
/var/folders/ck/8npsd__n1ql0b7wlfp9r5w5h0000gn/T/_gbsbuild/obj/script_21.rel
                                          [ script_21 ]
/var/folders/ck/8npsd__n1ql0b7wlfp9r5w5h0000gn/T/_gbsbuild/obj/script_23.rel
                                          [ script_23 ]
/var/folders/ck/8npsd__n1ql0b7wlfp9r5w5h0000gn/T/_gbsbuild/obj/script_24.rel
                                          [ script_24 ]
/var/folders/ck/8npsd__n1ql0b7wlfp9r5w5h0000gn/T/_gbsbuild/obj/script_25.rel
                                          [ script_25 ]
/var/folders/ck/8npsd__n1ql0b7wlfp9r5w5h0000gn/T/_gbsbuild/obj/script_26.rel
                                          [ script_26 ]
/var/folders/ck/8npsd__n1ql0b7wlfp9r5w5h0000gn/T/_gbsbuild/obj/script_27.rel
                                          [ script_27 ]
/var/folders/ck/8npsd__n1ql0b7wlfp9r5w5h0000gn/T/_gbsbuild/obj/script_28.rel
                                          [ script_28 ]
/var/folders/ck/8npsd__n1ql0b7wlfp9r5w5h0000gn/T/_gbsbuild/obj/script_29.rel
                                          [ script_29 ]
/var/folders/ck/8npsd__n1ql0b7wlfp9r5w5h0000gn/T/_gbsbuild/obj/script_3.rel
                                          [ script_3 ]
/var/folders/ck/8npsd__n1ql0b7wlfp9r5w5h0000gn/T/_gbsbuild/obj/script_4.rel
                                          [ script_4 ]
/var/folders/ck/8npsd__n1ql0b7wlfp9r5w5h0000gn/T/_gbsbuild/obj/script_5.rel
                                          [ script_5 ]
/var/folders/ck/8npsd__n1ql0b7wlfp9r5w5h0000gn/T/_gbsbuild/obj/script_6.rel
                                          [ script_6 ]
/var/folders/ck/8npsd__n1ql0b7wlfp9r5w5h0000gn/T/_gbsbuild/obj/script_7.rel
                                          [ script_7 ]
/var/folders/ck/8npsd__n1ql0b7wlfp9r5w5h0000gn/T/_gbsbuild/obj/script_8.rel
                                          [ script_8 ]
/var/folders/ck/8npsd__n1ql0b7wlfp9r5w5h0000gn/T/_gbsbuild/obj/script_9.rel
                                          [ script_9 ]
/var/folders/ck/8npsd__n1ql0b7wlfp9r5w5h0000gn/T/_gbsbuild/obj/script_engine_init.rel
                                          [  ]
/var/folders/ck/8npsd__n1ql0b7wlfp9r5w5h0000gn/T/_gbsbuild/obj/script_input_0.rel
                                          [ script_input_0 ]
/var/folders/ck/8npsd__n1ql0b7wlfp9r5w5h0000gn/T/_gbsbuild/obj/script_input_1.rel
                                          [ script_input_1 ]
/var/folders/ck/8npsd__n1ql0b7wlfp9r5w5h0000gn/T/_gbsbuild/obj/script_input_10.rel
                                          [ script_input_10 ]
/var/folders/ck/8npsd__n1ql0b7wlfp9r5w5h0000gn/T/_gbsbuild/obj/script_input_11.rel
                                          [ script_input_11 ]
/var/folders/ck/8npsd__n1ql0b7wlfp9r5w5h0000gn/T/_gbsbuild/obj/script_input_12.rel
                                          [ script_input_12 ]
/var/folders/ck/8npsd__n1ql0b7wlfp9r5w5h0000gn/T/_gbsbuild/obj/script_input_13.rel
                                          [ script_input_13 ]
/var/folders/ck/8npsd__n1ql0b7wlfp9r5w5h0000gn/T/_gbsbuild/obj/script_input_2.rel
                                          [ script_input_2 ]
/var/folders/ck/8npsd__n1ql0b7wlfp9r5w5h0000gn/T/_gbsbuild/obj/script_input_3.rel
                                          [ script_input_3 ]
/var/folders/ck/8npsd__n1ql0b7wlfp9r5w5h0000gn/T/_gbsbuild/obj/script_input_4.rel
                                          [ script_input_4 ]
/var/folders/ck/8npsd__n1ql0b7wlfp9r5w5h0000gn/T/_gbsbuild/obj/script_input_5.rel
                                          [ script_input_5 ]
/var/folders/ck/8npsd__n1ql0b7wlfp9r5w5h0000gn/T/_gbsbuild/obj/script_input_6.rel
                                          [ script_input_6 ]
/var/folders/ck/8npsd__n1ql0b7wlfp9r5w5h0000gn/T/_gbsbuild/obj/script_input_7.rel
                                          [ script_input_7 ]
/var/folders/ck/8npsd__n1ql0b7wlfp9r5w5h0000gn/T/_gbsbuild/obj/script_input_8.rel
                                          [ script_input_8 ]
/var/folders/ck/8npsd__n1ql0b7wlfp9r5w5h0000gn/T/_gbsbuild/obj/script_input_9.rel
                                          [ script_input_9 ]
/var/folders/ck/8npsd__n1ql0b7wlfp9r5w5h0000gn/T/_gbsbuild/obj/sound_cancel_vgm.rel
                                          [ sound_cancel_vgm ]
/var/folders/ck/8npsd__n1ql0b7wlfp9r5w5h0000gn/T/_gbsbuild/obj/sound_cat_meow_vgm.rel
                                          [ sound_cat_meow_vgm ]
/var/folders/ck/8npsd__n1ql0b7wlfp9r5w5h0000gn/T/_gbsbuild/obj/sound_click_vgm.rel
                                          [ sound_click_vgm ]
/var/folders/ck/8npsd__n1ql0b7wlfp9r5w5h0000gn/T/_gbsbuild/obj/sound_explosion_vgm.rel
                                          [ sound_explosion_vgm ]
/var/folders/ck/8npsd__n1ql0b7wlfp9r5w5h0000gn/T/_gbsbuild/obj/sound_hurt_vgm.rel
                                          [ sound_hurt_vgm ]
/var/folders/ck/8npsd__n1ql0b7wlfp9r5w5h0000gn/T/_gbsbuild/obj/sound_jump_vgm.rel
                                          [ sound_jump_vgm ]
/var/folders/ck/8npsd__n1ql0b7wlfp9r5w5h0000gn/T/_gbsbuild/obj/sound_monster_scream_vgm.rel
                                          [ sound_monster_scream_vgm ]
/var/folders/ck/8npsd__n1ql0b7wlfp9r5w5h0000gn/T/_gbsbuild/obj/sprite_3d_hermano_flare_tileset.rel
                                          [ sprite_3d_hermano_flare_tileset ]
/var/folders/ck/8npsd__n1ql0b7wlfp9r5w5h0000gn/T/_gbsbuild/obj/sprite_3d_hermano_flare.rel
                                          [ sprite_3d_hermano_flare ]
/var/folders/ck/8npsd__n1ql0b7wlfp9r5w5h0000gn/T/_gbsbuild/obj/sprite_3d_hermano_tileset.rel
                                          [ sprite_3d_hermano_tileset ]
/var/folders/ck/8npsd__n1ql0b7wlfp9r5w5h0000gn/T/_gbsbuild/obj/sprite_3d_hermano.rel
                                          [ sprite_3d_hermano ]
/var/folders/ck/8npsd__n1ql0b7wlfp9r5w5h0000gn/T/_gbsbuild/obj/sprite_3d_pig_tileset.rel
                                          [ sprite_3d_pig_tileset ]
/var/folders/ck/8npsd__n1ql0b7wlfp9r5w5h0000gn/T/_gbsbuild/obj/sprite_3d_pig.rel
                                          [ sprite_3d_pig ]
/var/folders/ck/8npsd__n1ql0b7wlfp9r5w5h0000gn/T/_gbsbuild/obj/sprite_3d_rabbit_tileset.rel
                                          [ sprite_3d_rabbit_tileset ]
/var/folders/ck/8npsd__n1ql0b7wlfp9r5w5h0000gn/T/_gbsbuild/obj/sprite_3d_rabbit.rel
                                          [ sprite_3d_rabbit ]
/var/folders/ck/8npsd__n1ql0b7wlfp9r5w5h0000gn/T/_gbsbuild/obj/sprite_3d_warangka_tileset.rel
                                          [ sprite_3d_warangka_tileset ]
/var/folders/ck/8npsd__n1ql0b7wlfp9r5w5h0000gn/T/_gbsbuild/obj/sprite_3d_warangka.rel
                                          [ sprite_3d_warangka ]
/var/folders/ck/8npsd__n1ql0b7wlfp9r5w5h0000gn/T/_gbsbuild/obj/sprite_3d_waraya_tileset.rel
                                          [ sprite_3d_waraya_tileset ]
/var/folders/ck/8npsd__n1ql0b7wlfp9r5w5h0000gn/T/_gbsbuild/obj/sprite_3d_waraya.rel
                                          [ sprite_3d_waraya ]
/var/folders/ck/8npsd__n1ql0b7wlfp9r5w5h0000gn/T/_gbsbuild/obj/sprite_adult_tiger_0_tileset.rel
                                          [ sprite_adult_tiger_0_tileset ]
/var/folders/ck/8npsd__n1ql0b7wlfp9r5w5h0000gn/T/_gbsbuild/obj/sprite_adult_tiger_0.rel
                                          [ sprite_adult_tiger_0 ]
/var/folders/ck/8npsd__n1ql0b7wlfp9r5w5h0000gn/T/_gbsbuild/obj/sprite_baby_player_tileset.rel
                                          [ sprite_baby_player_tileset ]
/var/folders/ck/8npsd__n1ql0b7wlfp9r5w5h0000gn/T/_gbsbuild/obj/sprite_baby_player.rel
                                          [ sprite_baby_player ]
/var/folders/ck/8npsd__n1ql0b7wlfp9r5w5h0000gn/T/_gbsbuild/obj/sprite_big_rock_tileset.rel
                                          [ sprite_big_rock_tileset ]
/var/folders/ck/8npsd__n1ql0b7wlfp9r5w5h0000gn/T/_gbsbuild/obj/sprite_big_rock.rel
                                          [ sprite_big_rock ]
/var/folders/ck/8npsd__n1ql0b7wlfp9r5w5h0000gn/T/_gbsbuild/obj/sprite_cat.rel
                                          [ sprite_cat ]
/var/folders/ck/8npsd__n1ql0b7wlfp9r5w5h0000gn/T/_gbsbuild/obj/sprite_hermano_topdown_tileset.rel
                                          [ sprite_hermano_topdown_tileset ]
/var/folders/ck/8npsd__n1ql0b7wlfp9r5w5h0000gn/T/_gbsbuild/obj/sprite_hermano_topdown.rel
                                          [ sprite_hermano_topdown ]
/var/folders/ck/8npsd__n1ql0b7wlfp9r5w5h0000gn/T/_gbsbuild/obj/sprite_lion_tileset.rel
                                          [ sprite_lion_tileset ]
/var/folders/ck/8npsd__n1ql0b7wlfp9r5w5h0000gn/T/_gbsbuild/obj/sprite_lion.rel
                                          [ sprite_lion ]
/var/folders/ck/8npsd__n1ql0b7wlfp9r5w5h0000gn/T/_gbsbuild/obj/sprite_pig_tileset.rel
                                          [ sprite_pig_tileset ]
/var/folders/ck/8npsd__n1ql0b7wlfp9r5w5h0000gn/T/_gbsbuild/obj/sprite_pig.rel
                                          [ sprite_pig ]
/var/folders/ck/8npsd__n1ql0b7wlfp9r5w5h0000gn/T/_gbsbuild/obj/sprite_player_tileset.rel
                                          [ sprite_player_tileset ]
/var/folders/ck/8npsd__n1ql0b7wlfp9r5w5h0000gn/T/_gbsbuild/obj/sprite_player.rel
                                          [ sprite_player ]
/var/folders/ck/8npsd__n1ql0b7wlfp9r5w5h0000gn/T/_gbsbuild/obj/sprite_rabbit_tileset.rel
                                          [ sprite_rabbit_tileset ]
/var/folders/ck/8npsd__n1ql0b7wlfp9r5w5h0000gn/T/_gbsbuild/obj/sprite_rabbit.rel
                                          [ sprite_rabbit ]
/var/folders/ck/8npsd__n1ql0b7wlfp9r5w5h0000gn/T/_gbsbuild/obj/sprite_river_animation_tileset.rel
                                          [ sprite_river_animation_tileset ]
/var/folders/ck/8npsd__n1ql0b7wlfp9r5w5h0000gn/T/_gbsbuild/obj/sprite_river_animation.rel
                                          [ sprite_river_animation ]
/var/folders/ck/8npsd__n1ql0b7wlfp9r5w5h0000gn/T/_gbsbuild/obj/spritesheet_none.rel
                                          [ spritesheet_none ]
/var/folders/ck/8npsd__n1ql0b7wlfp9r5w5h0000gn/T/_gbsbuild/obj/trigger_0_interact.rel
                                          [ trigger_0_interact ]
/var/folders/ck/8npsd__n1ql0b7wlfp9r5w5h0000gn/T/_gbsbuild/obj/trigger_1_interact.rel
                                          [ trigger_1_interact ]
/var/folders/ck/8npsd__n1ql0b7wlfp9r5w5h0000gn/T/_gbsbuild/obj/trigger_2_interact.rel
                                          [ trigger_2_interact ]
/var/folders/ck/8npsd__n1ql0b7wlfp9r5w5h0000gn/T/_gbsbuild/obj/trigger_3_interact.rel
                                          [ trigger_3_interact ]
/var/folders/ck/8npsd__n1ql0b7wlfp9r5w5h0000gn/T/_gbsbuild/obj/trigger_4_interact.rel
                                          [ trigger_4_interact ]
/var/folders/ck/8npsd__n1ql0b7wlfp9r5w5h0000gn/T/_gbsbuild/obj/trigger_5_interact.rel
                                          [ trigger_5_interact ]
/var/folders/ck/8npsd__n1ql0b7wlfp9r5w5h0000gn/T/_gbsbuild/obj/trigger_6_interact.rel
                                          [ trigger_6_interact ]
/var/folders/ck/8npsd__n1ql0b7wlfp9r5w5h0000gn/T/_gbsbuild/obj/trigger_7_interact.rel
                                          [ trigger_7_interact ]
/var/folders/ck/8npsd__n1ql0b7wlfp9r5w5h0000gn/T/_gbsbuild/obj/trigger_8_interact.rel
                                          [ trigger_8_interact ]
/var/folders/ck/8npsd__n1ql0b7wlfp9r5w5h0000gn/T/_gbsbuild/obj/main.rel
                                          [ main ]
/var/folders/ck/8npsd__n1ql0b7wlfp9r5w5h0000gn/T/_gbsbuild/obj/adventure.rel
                                          [ adventure ]
/var/folders/ck/8npsd__n1ql0b7wlfp9r5w5h0000gn/T/_gbsbuild/obj/logo.rel
                                          [ logo ]
/var/folders/ck/8npsd__n1ql0b7wlfp9r5w5h0000gn/T/_gbsbuild/obj/platform.rel
                                          [ platform ]
/var/folders/ck/8npsd__n1ql0b7wlfp9r5w5h0000gn/T/_gbsbuild/obj/pointnclick.rel
                                          [ pointnclick ]
/var/folders/ck/8npsd__n1ql0b7wlfp9r5w5h0000gn/T/_gbsbuild/obj/shmup.rel
                                          [ shmup ]
/var/folders/ck/8npsd__n1ql0b7wlfp9r5w5h0000gn/T/_gbsbuild/obj/states_ptrs.rel
                                          [  ]
/var/folders/ck/8npsd__n1ql0b7wlfp9r5w5h0000gn/T/_gbsbuild/obj/topdown.rel
                                          [ topdown ]


Libraries Linked                          [ object file ]

/var/folders/ck/8npsd__n1ql0b7wlfp9r5w5h0000gn/T/_gbstools/gbdk/lib/small/asxxxx/gb/gb.lib
                                          [ fill_rect_wi.o ]
/var/folders/ck/8npsd__n1ql0b7wlfp9r5w5h0000gn/T/_gbstools/gbdk/lib/small/asxxxx/gbz80/gbz80.lib
                                          [ rand.o ]
lib/hUGEDriver.lib                        [ hUGEDriver.obj.o ]
/var/folders/ck/8npsd__n1ql0b7wlfp9r5w5h0000gn/T/_gbstools/gbdk/lib/small/asxxxx/gb/gb.lib
                                          [ sfr.o ]
/var/folders/ck/8npsd__n1ql0b7wlfp9r5w5h0000gn/T/_gbstools/gbdk/lib/small/asxxxx/gb/gb.lib
                                          [ get_data.o ]
/var/folders/ck/8npsd__n1ql0b7wlfp9r5w5h0000gn/T/_gbstools/gbdk/lib/small/asxxxx/gb/gb.lib
                                          [ get_tile.o ]
/var/folders/ck/8npsd__n1ql0b7wlfp9r5w5h0000gn/T/_gbstools/gbdk/lib/small/asxxxx/gb/gb.lib
                                          [ cgb_palettes.o ]
/var/folders/ck/8npsd__n1ql0b7wlfp9r5w5h0000gn/T/_gbstools/gbdk/lib/small/asxxxx/gb/gb.lib
                                          [ metasprites_hide_spr.o ]
/var/folders/ck/8npsd__n1ql0b7wlfp9r5w5h0000gn/T/_gbstools/gbdk/lib/small/asxxxx/gbz80/gbz80.lib
                                          [ mul.o ]
/var/folders/ck/8npsd__n1ql0b7wlfp9r5w5h0000gn/T/_gbstools/gbdk/lib/small/asxxxx/gbz80/gbz80.lib
                                          [ abs.o ]
/var/folders/ck/8npsd__n1ql0b7wlfp9r5w5h0000gn/T/_gbstools/gbdk/lib/small/asxxxx/gb/gb.lib
                                          [ set_wi_t.o ]
/var/folders/ck/8npsd__n1ql0b7wlfp9r5w5h0000gn/T/_gbstools/gbdk/lib/small/asxxxx/gb/gb.lib
                                          [ set_data.o ]
/var/folders/ck/8npsd__n1ql0b7wlfp9r5w5h0000gn/T/_gbstools/gbdk/lib/small/asxxxx/gbz80/gbz80.lib
                                          [ reverse.o ]
/var/folders/ck/8npsd__n1ql0b7wlfp9r5w5h0000gn/T/_gbstools/gbdk/lib/small/asxxxx/gb/gb.lib
                                          [ far_ptr.o ]
/var/folders/ck/8npsd__n1ql0b7wlfp9r5w5h0000gn/T/_gbstools/gbdk/lib/small/asxxxx/gb/gb.lib
                                          [ sgb.o ]
/var/folders/ck/8npsd__n1ql0b7wlfp9r5w5h0000gn/T/_gbstools/gbdk/lib/small/asxxxx/gb/gb.lib
                                          [ lcd.o ]
/var/folders/ck/8npsd__n1ql0b7wlfp9r5w5h0000gn/T/_gbstools/gbdk/lib/small/asxxxx/gb/gb.lib
                                          [ fill_rect.o ]
/var/folders/ck/8npsd__n1ql0b7wlfp9r5w5h0000gn/T/_gbstools/gbdk/lib/small/asxxxx/gb/gb.lib
                                          [ cpy_data.o ]
/var/folders/ck/8npsd__n1ql0b7wlfp9r5w5h0000gn/T/_gbstools/gbdk/lib/small/asxxxx/gb/gb.lib
                                          [ fill_rect_bk.o ]
/var/folders/ck/8npsd__n1ql0b7wlfp9r5w5h0000gn/T/_gbstools/gbdk/lib/small/asxxxx/gb/gb.lib
                                          [ pad.o ]
/var/folders/ck/8npsd__n1ql0b7wlfp9r5w5h0000gn/T/_gbstools/gbdk/lib/small/asxxxx/gb/gb.lib
                                          [ metasprites.o ]
/var/folders/ck/8npsd__n1ql0b7wlfp9r5w5h0000gn/T/_gbstools/gbdk/lib/small/asxxxx/gbz80/gbz80.lib
                                          [ __sdcc_call_hl.o ]
/var/folders/ck/8npsd__n1ql0b7wlfp9r5w5h0000gn/T/_gbstools/gbdk/lib/small/asxxxx/gbz80/gbz80.lib
                                          [ _memcpy.o ]
/var/folders/ck/8npsd__n1ql0b7wlfp9r5w5h0000gn/T/_gbstools/gbdk/lib/small/asxxxx/gbz80/gbz80.lib
                                          [ _memset.o ]
/var/folders/ck/8npsd__n1ql0b7wlfp9r5w5h0000gn/T/_gbstools/gbdk/lib/small/asxxxx/gb/gb.lib
                                          [ set_xy_t.o ]
/var/folders/ck/8npsd__n1ql0b7wlfp9r5w5h0000gn/T/_gbstools/gbdk/lib/small/asxxxx/gb/gb.lib
                                          [ cgb.o ]
/var/folders/ck/8npsd__n1ql0b7wlfp9r5w5h0000gn/T/_gbstools/gbdk/lib/small/asxxxx/gbz80/gbz80.lib
                                          [ div.o ]
/var/folders/ck/8npsd__n1ql0b7wlfp9r5w5h0000gn/T/_gbstools/gbdk/lib/small/asxxxx/gb/gb.lib
                                          [ set_bk_t.o ]

ASxxxx Linker V03.00 + NoICE + sdld,  page 83.

User Base Address Definitions

_DATA=0xC0A0
_CODE=0x0200
ASxxxx Linker V03.00 + NoICE + sdld,  page 84.

User Global Definitions

.STACK=0xDF00
_shadow_OAM=0xC000
.refresh_OAM=0xFF80
__start_save=12

